
Wetter.elf:     file format elf32-avr

Sections:
Idx Name          Size      VMA       LMA       File off  Algn
  0 .text         00000ed4  00000000  00000000  00000094  2**1
                  CONTENTS, ALLOC, LOAD, READONLY, CODE
  1 .data         000000c6  00800060  00000ed4  00000f68  2**0
                  CONTENTS, ALLOC, LOAD, DATA
  2 .bss          00000049  00800126  00800126  0000102e  2**0
                  ALLOC
  3 .stab         00000bdc  00000000  00000000  00001030  2**2
                  CONTENTS, READONLY, DEBUGGING
  4 .stabstr      00000112  00000000  00000000  00001c0c  2**0
                  CONTENTS, READONLY, DEBUGGING
  5 .comment      00000011  00000000  00000000  00001d1e  2**0
                  CONTENTS, READONLY

Disassembly of section .text:

00000000 <__vectors>:
   0:	0c 94 2a 00 	jmp	0x54	; 0x54 <__ctors_end>
   4:	0c 94 47 00 	jmp	0x8e	; 0x8e <__bad_interrupt>
   8:	0c 94 a9 00 	jmp	0x152	; 0x152 <__vector_2>
   c:	0c 94 47 00 	jmp	0x8e	; 0x8e <__bad_interrupt>
  10:	0c 94 47 00 	jmp	0x8e	; 0x8e <__bad_interrupt>
  14:	0c 94 f0 04 	jmp	0x9e0	; 0x9e0 <__vector_5>
  18:	0c 94 47 00 	jmp	0x8e	; 0x8e <__bad_interrupt>
  1c:	0c 94 47 00 	jmp	0x8e	; 0x8e <__bad_interrupt>
  20:	0c 94 47 00 	jmp	0x8e	; 0x8e <__bad_interrupt>
  24:	0c 94 55 05 	jmp	0xaaa	; 0xaaa <__vector_9>
  28:	0c 94 47 00 	jmp	0x8e	; 0x8e <__bad_interrupt>
  2c:	0c 94 47 00 	jmp	0x8e	; 0x8e <__bad_interrupt>
  30:	0c 94 47 00 	jmp	0x8e	; 0x8e <__bad_interrupt>
  34:	0c 94 04 06 	jmp	0xc08	; 0xc08 <__vector_13>
  38:	0c 94 47 00 	jmp	0x8e	; 0x8e <__bad_interrupt>
  3c:	0c 94 47 00 	jmp	0x8e	; 0x8e <__bad_interrupt>
  40:	0c 94 47 00 	jmp	0x8e	; 0x8e <__bad_interrupt>
  44:	0c 94 47 00 	jmp	0x8e	; 0x8e <__bad_interrupt>
  48:	0c 94 47 00 	jmp	0x8e	; 0x8e <__bad_interrupt>
  4c:	0c 94 47 00 	jmp	0x8e	; 0x8e <__bad_interrupt>
  50:	0c 94 47 00 	jmp	0x8e	; 0x8e <__bad_interrupt>

00000054 <__ctors_end>:
  54:	11 24       	eor	r1, r1
  56:	1f be       	out	0x3f, r1	; 63
  58:	cf e5       	ldi	r28, 0x5F	; 95
  5a:	d8 e0       	ldi	r29, 0x08	; 8
  5c:	de bf       	out	0x3e, r29	; 62
  5e:	cd bf       	out	0x3d, r28	; 61

00000060 <__do_copy_data>:
  60:	11 e0       	ldi	r17, 0x01	; 1
  62:	a0 e6       	ldi	r26, 0x60	; 96
  64:	b0 e0       	ldi	r27, 0x00	; 0
  66:	e4 ed       	ldi	r30, 0xD4	; 212
  68:	fe e0       	ldi	r31, 0x0E	; 14
  6a:	02 c0       	rjmp	.+4      	; 0x70 <__do_copy_data+0x10>
  6c:	05 90       	lpm	r0, Z+
  6e:	0d 92       	st	X+, r0
  70:	a6 32       	cpi	r26, 0x26	; 38
  72:	b1 07       	cpc	r27, r17
  74:	d9 f7       	brne	.-10     	; 0x6c <__do_copy_data+0xc>

00000076 <__do_clear_bss>:
  76:	11 e0       	ldi	r17, 0x01	; 1
  78:	a6 e2       	ldi	r26, 0x26	; 38
  7a:	b1 e0       	ldi	r27, 0x01	; 1
  7c:	01 c0       	rjmp	.+2      	; 0x80 <.do_clear_bss_start>

0000007e <.do_clear_bss_loop>:
  7e:	1d 92       	st	X+, r1

00000080 <.do_clear_bss_start>:
  80:	af 36       	cpi	r26, 0x6F	; 111
  82:	b1 07       	cpc	r27, r17
  84:	e1 f7       	brne	.-8      	; 0x7e <.do_clear_bss_loop>
  86:	0e 94 18 07 	call	0xe30	; 0xe30 <main>
  8a:	0c 94 68 07 	jmp	0xed0	; 0xed0 <_exit>

0000008e <__bad_interrupt>:
  8e:	0c 94 00 00 	jmp	0	; 0x0 <__vectors>

00000092 <com_wait_low>:
  92:	9d 99       	sbic	0x13, 5	; 19
  94:	fe cf       	rjmp	.-4      	; 0x92 <com_wait_low>
  96:	08 95       	ret

00000098 <com_wait_high>:
  98:	9d 9b       	sbis	0x13, 5	; 19
  9a:	fe cf       	rjmp	.-4      	; 0x98 <com_wait_high>
  9c:	08 95       	ret

0000009e <com_send_ack>:
  9e:	ac 98       	cbi	0x15, 4	; 21
  a0:	0e 94 4c 00 	call	0x98	; 0x98 <com_wait_high>
  a4:	ac 9a       	sbi	0x15, 4	; 21
  a6:	08 95       	ret

000000a8 <com_mark_active_and_wait_ack>:
  a8:	ac 98       	cbi	0x15, 4	; 21
  aa:	0e 94 49 00 	call	0x92	; 0x92 <com_wait_low>
  ae:	ac 9a       	sbi	0x15, 4	; 21
  b0:	0c 94 4c 00 	jmp	0x98	; 0x98 <com_wait_high>

000000b4 <com_set_command>:
  b4:	25 b3       	in	r18, 0x15	; 21
  b6:	30 e4       	ldi	r19, 0x40	; 64
  b8:	83 9f       	mul	r24, r19
  ba:	c0 01       	movw	r24, r0
  bc:	11 24       	eor	r1, r1
  be:	2f 73       	andi	r18, 0x3F	; 63
  c0:	28 2b       	or	r18, r24
  c2:	25 bb       	out	0x15, r18	; 21
  c4:	0e 94 54 00 	call	0xa8	; 0xa8 <com_mark_active_and_wait_ack>
  c8:	85 b3       	in	r24, 0x15	; 21
  ca:	8f 73       	andi	r24, 0x3F	; 63
  cc:	85 bb       	out	0x15, r24	; 21
  ce:	08 95       	ret

000000d0 <com_disconnect>:
  d0:	63 e0       	ldi	r22, 0x03	; 3
  d2:	80 e0       	ldi	r24, 0x00	; 0
  d4:	0e 94 0d 02 	call	0x41a	; 0x41a <adr_set>
  d8:	14 ba       	out	0x14, r1	; 20
  da:	8f ef       	ldi	r24, 0xFF	; 255
  dc:	85 bb       	out	0x15, r24	; 21
  de:	a6 98       	cbi	0x14, 6	; 20
  e0:	ae 9a       	sbi	0x15, 6	; 21
  e2:	a7 98       	cbi	0x14, 7	; 20
  e4:	af 9a       	sbi	0x15, 7	; 21
  e6:	8f ef       	ldi	r24, 0xFF	; 255
  e8:	9b e3       	ldi	r25, 0x3B	; 59
  ea:	01 97       	sbiw	r24, 0x01	; 1
  ec:	f1 f7       	brne	.-4      	; 0xea <com_disconnect+0x1a>
  ee:	00 c0       	rjmp	.+0      	; 0xf0 <com_disconnect+0x20>
  f0:	00 00       	nop
  f2:	08 95       	ret

000000f4 <com_config>:
  f4:	8f 3f       	cpi	r24, 0xFF	; 255
  f6:	31 f4       	brne	.+12     	; 0x104 <com_config+0x10>
  f8:	84 b3       	in	r24, 0x14	; 20
  fa:	8f 60       	ori	r24, 0x0F	; 15
  fc:	84 bb       	out	0x14, r24	; 20
  fe:	85 b3       	in	r24, 0x15	; 21
 100:	80 7f       	andi	r24, 0xF0	; 240
 102:	05 c0       	rjmp	.+10     	; 0x10e <com_config+0x1a>
 104:	84 b3       	in	r24, 0x14	; 20
 106:	80 7f       	andi	r24, 0xF0	; 240
 108:	84 bb       	out	0x14, r24	; 20
 10a:	85 b3       	in	r24, 0x15	; 21
 10c:	8f 60       	ori	r24, 0x0F	; 15
 10e:	85 bb       	out	0x15, r24	; 21
 110:	08 95       	ret

00000112 <com_connect>:
 112:	63 e0       	ldi	r22, 0x03	; 3
 114:	80 e4       	ldi	r24, 0x40	; 64
 116:	0e 94 0d 02 	call	0x41a	; 0x41a <adr_set>
 11a:	a5 98       	cbi	0x14, 5	; 20
 11c:	ad 9a       	sbi	0x15, 5	; 21
 11e:	a4 9a       	sbi	0x14, 4	; 20
 120:	ac 9a       	sbi	0x15, 4	; 21
 122:	a6 9a       	sbi	0x14, 6	; 20
 124:	ae 98       	cbi	0x15, 6	; 21
 126:	a7 9a       	sbi	0x14, 7	; 20
 128:	af 98       	cbi	0x15, 7	; 21
 12a:	80 e0       	ldi	r24, 0x00	; 0
 12c:	0e 94 7a 00 	call	0xf4	; 0xf4 <com_config>
 130:	0c 94 54 00 	jmp	0xa8	; 0xa8 <com_mark_active_and_wait_ack>

00000134 <com_init>:
 134:	14 ba       	out	0x14, r1	; 20
 136:	8f ef       	ldi	r24, 0xFF	; 255
 138:	85 bb       	out	0x15, r24	; 21
 13a:	85 b7       	in	r24, 0x35	; 53
 13c:	8b 7f       	andi	r24, 0xFB	; 251
 13e:	85 bf       	out	0x35, r24	; 53
 140:	85 b7       	in	r24, 0x35	; 53
 142:	88 60       	ori	r24, 0x08	; 8
 144:	85 bf       	out	0x35, r24	; 53
 146:	93 9a       	sbi	0x12, 3	; 18
 148:	8b 98       	cbi	0x11, 3	; 17
 14a:	8b b7       	in	r24, 0x3b	; 59
 14c:	80 68       	ori	r24, 0x80	; 128
 14e:	8b bf       	out	0x3b, r24	; 59
 150:	08 95       	ret

00000152 <__vector_2>:
 152:	1f 92       	push	r1
 154:	0f 92       	push	r0
 156:	0f b6       	in	r0, 0x3f	; 63
 158:	0f 92       	push	r0
 15a:	11 24       	eor	r1, r1
 15c:	8f 93       	push	r24
 15e:	81 e0       	ldi	r24, 0x01	; 1
 160:	80 93 26 01 	sts	0x0126, r24
 164:	8b b7       	in	r24, 0x3b	; 59
 166:	8f 77       	andi	r24, 0x7F	; 127
 168:	8b bf       	out	0x3b, r24	; 59
 16a:	8f 91       	pop	r24
 16c:	0f 90       	pop	r0
 16e:	0f be       	out	0x3f, r0	; 63
 170:	0f 90       	pop	r0
 172:	1f 90       	pop	r1
 174:	18 95       	reti

00000176 <com_write_nibble>:
 176:	95 b3       	in	r25, 0x15	; 21
 178:	8f 70       	andi	r24, 0x0F	; 15
 17a:	90 7f       	andi	r25, 0xF0	; 240
 17c:	89 2b       	or	r24, r25
 17e:	85 bb       	out	0x15, r24	; 21
 180:	0c 94 54 00 	jmp	0xa8	; 0xa8 <com_mark_active_and_wait_ack>

00000184 <com_read_nibble>:
 184:	cf 93       	push	r28
 186:	0e 94 49 00 	call	0x92	; 0x92 <com_wait_low>
 18a:	c3 b3       	in	r28, 0x13	; 19
 18c:	0e 94 4f 00 	call	0x9e	; 0x9e <com_send_ack>
 190:	8c 2f       	mov	r24, r28
 192:	8f 70       	andi	r24, 0x0F	; 15
 194:	cf 91       	pop	r28
 196:	08 95       	ret

00000198 <com_write_byte>:
 198:	cf 93       	push	r28
 19a:	c8 2f       	mov	r28, r24
 19c:	82 95       	swap	r24
 19e:	8f 70       	andi	r24, 0x0F	; 15
 1a0:	0e 94 bb 00 	call	0x176	; 0x176 <com_write_nibble>
 1a4:	8c 2f       	mov	r24, r28
 1a6:	cf 91       	pop	r28
 1a8:	0c 94 bb 00 	jmp	0x176	; 0x176 <com_write_nibble>

000001ac <com_read_byte>:
 1ac:	cf 93       	push	r28
 1ae:	0e 94 c2 00 	call	0x184	; 0x184 <com_read_nibble>
 1b2:	c8 2f       	mov	r28, r24
 1b4:	c2 95       	swap	r28
 1b6:	c0 7f       	andi	r28, 0xF0	; 240
 1b8:	0e 94 c2 00 	call	0x184	; 0x184 <com_read_nibble>
 1bc:	8c 2b       	or	r24, r28
 1be:	cf 91       	pop	r28
 1c0:	08 95       	ret

000001c2 <com_send_chunk>:
 1c2:	0f 93       	push	r16
 1c4:	1f 93       	push	r17
 1c6:	cf 93       	push	r28
 1c8:	df 93       	push	r29
 1ca:	18 2f       	mov	r17, r24
 1cc:	0e 94 cc 00 	call	0x198	; 0x198 <com_write_byte>
 1d0:	c2 e4       	ldi	r28, 0x42	; 66
 1d2:	d1 e0       	ldi	r29, 0x01	; 1
 1d4:	0c 2f       	mov	r16, r28
 1d6:	03 c0       	rjmp	.+6      	; 0x1de <com_send_chunk+0x1c>
 1d8:	89 91       	ld	r24, Y+
 1da:	0e 94 cc 00 	call	0x198	; 0x198 <com_write_byte>
 1de:	8c 2f       	mov	r24, r28
 1e0:	80 1b       	sub	r24, r16
 1e2:	81 17       	cp	r24, r17
 1e4:	c8 f3       	brcs	.-14     	; 0x1d8 <com_send_chunk+0x16>
 1e6:	df 91       	pop	r29
 1e8:	cf 91       	pop	r28
 1ea:	1f 91       	pop	r17
 1ec:	0f 91       	pop	r16
 1ee:	08 95       	ret

000001f0 <com_receive_chunk>:
 1f0:	ff 92       	push	r15
 1f2:	0f 93       	push	r16
 1f4:	1f 93       	push	r17
 1f6:	cf 93       	push	r28
 1f8:	df 93       	push	r29
 1fa:	8c 01       	movw	r16, r24
 1fc:	0e 94 d6 00 	call	0x1ac	; 0x1ac <com_read_byte>
 200:	f8 01       	movw	r30, r16
 202:	80 83       	st	Z, r24
 204:	c5 e3       	ldi	r28, 0x35	; 53
 206:	d1 e0       	ldi	r29, 0x01	; 1
 208:	fc 2e       	mov	r15, r28
 20a:	03 c0       	rjmp	.+6      	; 0x212 <com_receive_chunk+0x22>
 20c:	0e 94 d6 00 	call	0x1ac	; 0x1ac <com_read_byte>
 210:	89 93       	st	Y+, r24
 212:	9c 2f       	mov	r25, r28
 214:	9f 19       	sub	r25, r15
 216:	f8 01       	movw	r30, r16
 218:	80 81       	ld	r24, Z
 21a:	98 17       	cp	r25, r24
 21c:	b8 f3       	brcs	.-18     	; 0x20c <com_receive_chunk+0x1c>
 21e:	df 91       	pop	r29
 220:	cf 91       	pop	r28
 222:	1f 91       	pop	r17
 224:	0f 91       	pop	r16
 226:	ff 90       	pop	r15
 228:	08 95       	ret

0000022a <com_check>:
 22a:	80 91 26 01 	lds	r24, 0x0126
 22e:	08 95       	ret

00000230 <cmd_parse>:
 230:	80 91 35 01 	lds	r24, 0x0135
 234:	82 30       	cpi	r24, 0x02	; 2
 236:	61 f0       	breq	.+24     	; 0x250 <cmd_parse+0x20>
 238:	18 f4       	brcc	.+6      	; 0x240 <cmd_parse+0x10>
 23a:	81 30       	cpi	r24, 0x01	; 1
 23c:	29 f4       	brne	.+10     	; 0x248 <cmd_parse+0x18>
 23e:	06 c0       	rjmp	.+12     	; 0x24c <cmd_parse+0x1c>
 240:	85 30       	cpi	r24, 0x05	; 5
 242:	89 f0       	breq	.+34     	; 0x266 <cmd_parse+0x36>
 244:	86 30       	cpi	r24, 0x06	; 6
 246:	41 f0       	breq	.+16     	; 0x258 <cmd_parse+0x28>
 248:	80 e0       	ldi	r24, 0x00	; 0
 24a:	0e c0       	rjmp	.+28     	; 0x268 <cmd_parse+0x38>
 24c:	81 e0       	ldi	r24, 0x01	; 1
 24e:	01 c0       	rjmp	.+2      	; 0x252 <cmd_parse+0x22>
 250:	82 e0       	ldi	r24, 0x02	; 2
 252:	0e 94 cd 01 	call	0x39a	; 0x39a <tmp_get>
 256:	03 c0       	rjmp	.+6      	; 0x25e <cmd_parse+0x2e>
 258:	80 e0       	ldi	r24, 0x00	; 0
 25a:	0e 94 8f 01 	call	0x31e	; 0x31e <adc_read>
 25e:	90 93 44 01 	sts	0x0144, r25
 262:	80 93 43 01 	sts	0x0143, r24
 266:	82 e0       	ldi	r24, 0x02	; 2
 268:	90 91 35 01 	lds	r25, 0x0135
 26c:	90 93 42 01 	sts	0x0142, r25
 270:	8f 5f       	subi	r24, 0xFF	; 255
 272:	08 95       	ret

00000274 <net_send>:
 274:	cf 93       	push	r28
 276:	c8 2f       	mov	r28, r24
 278:	0e 94 89 00 	call	0x112	; 0x112 <com_connect>
 27c:	81 e0       	ldi	r24, 0x01	; 1
 27e:	0e 94 5a 00 	call	0xb4	; 0xb4 <com_set_command>
 282:	8f ef       	ldi	r24, 0xFF	; 255
 284:	0e 94 7a 00 	call	0xf4	; 0xf4 <com_config>
 288:	8c 2f       	mov	r24, r28
 28a:	0e 94 e1 00 	call	0x1c2	; 0x1c2 <com_send_chunk>
 28e:	cf 91       	pop	r28
 290:	0c 94 68 00 	jmp	0xd0	; 0xd0 <com_disconnect>

00000294 <net_receive>:
 294:	cf 93       	push	r28
 296:	df 93       	push	r29
 298:	1f 92       	push	r1
 29a:	cd b7       	in	r28, 0x3d	; 61
 29c:	de b7       	in	r29, 0x3e	; 62
 29e:	0e 94 15 01 	call	0x22a	; 0x22a <com_check>
 2a2:	88 23       	and	r24, r24
 2a4:	c9 f0       	breq	.+50     	; 0x2d8 <net_receive+0x44>
 2a6:	0e 94 89 00 	call	0x112	; 0x112 <com_connect>
 2aa:	82 e0       	ldi	r24, 0x02	; 2
 2ac:	0e 94 5a 00 	call	0xb4	; 0xb4 <com_set_command>
 2b0:	80 e0       	ldi	r24, 0x00	; 0
 2b2:	0e 94 7a 00 	call	0xf4	; 0xf4 <com_config>
 2b6:	19 82       	std	Y+1, r1	; 0x01
 2b8:	ce 01       	movw	r24, r28
 2ba:	01 96       	adiw	r24, 0x01	; 1
 2bc:	0e 94 f8 00 	call	0x1f0	; 0x1f0 <com_receive_chunk>
 2c0:	0e 94 68 00 	call	0xd0	; 0xd0 <com_disconnect>
 2c4:	10 92 26 01 	sts	0x0126, r1
 2c8:	8b b7       	in	r24, 0x3b	; 59
 2ca:	80 68       	ori	r24, 0x80	; 128
 2cc:	8b bf       	out	0x3b, r24	; 59
 2ce:	0e 94 18 01 	call	0x230	; 0x230 <cmd_parse>
 2d2:	89 83       	std	Y+1, r24	; 0x01
 2d4:	0e 94 3a 01 	call	0x274	; 0x274 <net_send>
 2d8:	0f 90       	pop	r0
 2da:	df 91       	pop	r29
 2dc:	cf 91       	pop	r28
 2de:	08 95       	ret

000002e0 <tmp_write>:
 2e0:	98 e0       	ldi	r25, 0x08	; 8
 2e2:	c7 98       	cbi	0x18, 7	; 24
 2e4:	80 ff       	sbrs	r24, 0
 2e6:	02 c0       	rjmp	.+4      	; 0x2ec <tmp_write+0xc>
 2e8:	c6 9a       	sbi	0x18, 6	; 24
 2ea:	01 c0       	rjmp	.+2      	; 0x2ee <tmp_write+0xe>
 2ec:	c6 98       	cbi	0x18, 6	; 24
 2ee:	24 e1       	ldi	r18, 0x14	; 20
 2f0:	2a 95       	dec	r18
 2f2:	f1 f7       	brne	.-4      	; 0x2f0 <tmp_write+0x10>
 2f4:	00 c0       	rjmp	.+0      	; 0x2f6 <tmp_write+0x16>
 2f6:	c7 9a       	sbi	0x18, 7	; 24
 2f8:	2d e3       	ldi	r18, 0x3D	; 61
 2fa:	2a 95       	dec	r18
 2fc:	f1 f7       	brne	.-4      	; 0x2fa <tmp_write+0x1a>
 2fe:	00 c0       	rjmp	.+0      	; 0x300 <tmp_write+0x20>
 300:	86 95       	lsr	r24
 302:	91 50       	subi	r25, 0x01	; 1
 304:	71 f7       	brne	.-36     	; 0x2e2 <tmp_write+0x2>
 306:	08 95       	ret

00000308 <adc_init>:
 308:	80 e4       	ldi	r24, 0x40	; 64
 30a:	87 b9       	out	0x07, r24	; 7
 30c:	83 e0       	ldi	r24, 0x03	; 3
 30e:	86 b9       	out	0x06, r24	; 6
 310:	37 9a       	sbi	0x06, 7	; 6
 312:	36 9a       	sbi	0x06, 6	; 6
 314:	36 99       	sbic	0x06, 6	; 6
 316:	fe cf       	rjmp	.-4      	; 0x314 <adc_init+0xc>
 318:	84 b1       	in	r24, 0x04	; 4
 31a:	95 b1       	in	r25, 0x05	; 5
 31c:	08 95       	ret

0000031e <adc_read>:
 31e:	97 b1       	in	r25, 0x07	; 7
 320:	8f 71       	andi	r24, 0x1F	; 31
 322:	90 7e       	andi	r25, 0xE0	; 224
 324:	89 2b       	or	r24, r25
 326:	87 b9       	out	0x07, r24	; 7
 328:	36 9a       	sbi	0x06, 6	; 6
 32a:	36 99       	sbic	0x06, 6	; 6
 32c:	fe cf       	rjmp	.-4      	; 0x32a <adc_read+0xc>
 32e:	24 b1       	in	r18, 0x04	; 4
 330:	35 b1       	in	r19, 0x05	; 5
 332:	c9 01       	movw	r24, r18
 334:	08 95       	ret

00000336 <tmp_config>:
 336:	bf 9a       	sbi	0x17, 7	; 23
 338:	be 9a       	sbi	0x17, 6	; 23
 33a:	c7 98       	cbi	0x18, 7	; 24
 33c:	c6 98       	cbi	0x18, 6	; 24
 33e:	63 e0       	ldi	r22, 0x03	; 3
 340:	0e 94 0d 02 	call	0x41a	; 0x41a <adr_set>
 344:	84 e1       	ldi	r24, 0x14	; 20
 346:	8a 95       	dec	r24
 348:	f1 f7       	brne	.-4      	; 0x346 <tmp_config+0x10>
 34a:	00 c0       	rjmp	.+0      	; 0x34c <tmp_config+0x16>
 34c:	8c e0       	ldi	r24, 0x0C	; 12
 34e:	0e 94 70 01 	call	0x2e0	; 0x2e0 <tmp_write>
 352:	8a e0       	ldi	r24, 0x0A	; 10
 354:	0e 94 70 01 	call	0x2e0	; 0x2e0 <tmp_write>
 358:	63 e0       	ldi	r22, 0x03	; 3
 35a:	80 e0       	ldi	r24, 0x00	; 0
 35c:	0e 94 0d 02 	call	0x41a	; 0x41a <adr_set>
 360:	8f ef       	ldi	r24, 0xFF	; 255
 362:	93 eb       	ldi	r25, 0xB3	; 179
 364:	01 97       	sbiw	r24, 0x01	; 1
 366:	f1 f7       	brne	.-4      	; 0x364 <tmp_config+0x2e>
 368:	00 c0       	rjmp	.+0      	; 0x36a <tmp_config+0x34>
 36a:	00 00       	nop
 36c:	08 95       	ret

0000036e <tmp_init>:
 36e:	bf 9a       	sbi	0x17, 7	; 23
 370:	be 9a       	sbi	0x17, 6	; 23
 372:	c7 98       	cbi	0x18, 7	; 24
 374:	c6 98       	cbi	0x18, 6	; 24
 376:	63 e0       	ldi	r22, 0x03	; 3
 378:	0e 94 0d 02 	call	0x41a	; 0x41a <adr_set>
 37c:	84 e1       	ldi	r24, 0x14	; 20
 37e:	8a 95       	dec	r24
 380:	f1 f7       	brne	.-4      	; 0x37e <tmp_init+0x10>
 382:	00 c0       	rjmp	.+0      	; 0x384 <tmp_init+0x16>
 384:	8e ee       	ldi	r24, 0xEE	; 238
 386:	0e 94 70 01 	call	0x2e0	; 0x2e0 <tmp_write>
 38a:	84 e1       	ldi	r24, 0x14	; 20
 38c:	8a 95       	dec	r24
 38e:	f1 f7       	brne	.-4      	; 0x38c <tmp_init+0x1e>
 390:	00 c0       	rjmp	.+0      	; 0x392 <tmp_init+0x24>
 392:	63 e0       	ldi	r22, 0x03	; 3
 394:	80 e0       	ldi	r24, 0x00	; 0
 396:	0c 94 0d 02 	jmp	0x41a	; 0x41a <adr_set>

0000039a <tmp_get>:
 39a:	cf 93       	push	r28
 39c:	df 93       	push	r29
 39e:	bf 9a       	sbi	0x17, 7	; 23
 3a0:	be 9a       	sbi	0x17, 6	; 23
 3a2:	c7 98       	cbi	0x18, 7	; 24
 3a4:	c6 98       	cbi	0x18, 6	; 24
 3a6:	63 e0       	ldi	r22, 0x03	; 3
 3a8:	0e 94 0d 02 	call	0x41a	; 0x41a <adr_set>
 3ac:	34 e1       	ldi	r19, 0x14	; 20
 3ae:	3a 95       	dec	r19
 3b0:	f1 f7       	brne	.-4      	; 0x3ae <tmp_get+0x14>
 3b2:	00 c0       	rjmp	.+0      	; 0x3b4 <tmp_get+0x1a>
 3b4:	8a ea       	ldi	r24, 0xAA	; 170
 3b6:	0e 94 70 01 	call	0x2e0	; 0x2e0 <tmp_write>
 3ba:	be 98       	cbi	0x17, 6	; 23
 3bc:	c6 9a       	sbi	0x18, 6	; 24
 3be:	44 e1       	ldi	r20, 0x14	; 20
 3c0:	4a 95       	dec	r20
 3c2:	f1 f7       	brne	.-4      	; 0x3c0 <tmp_get+0x26>
 3c4:	00 c0       	rjmp	.+0      	; 0x3c6 <tmp_get+0x2c>
 3c6:	29 e0       	ldi	r18, 0x09	; 9
 3c8:	81 e0       	ldi	r24, 0x01	; 1
 3ca:	90 e0       	ldi	r25, 0x00	; 0
 3cc:	c0 e0       	ldi	r28, 0x00	; 0
 3ce:	d0 e0       	ldi	r29, 0x00	; 0
 3d0:	c7 98       	cbi	0x18, 7	; 24
 3d2:	3a e0       	ldi	r19, 0x0A	; 10
 3d4:	3a 95       	dec	r19
 3d6:	f1 f7       	brne	.-4      	; 0x3d4 <tmp_get+0x3a>
 3d8:	00 00       	nop
 3da:	36 b3       	in	r19, 0x16	; 22
 3dc:	4a e0       	ldi	r20, 0x0A	; 10
 3de:	4a 95       	dec	r20
 3e0:	f1 f7       	brne	.-4      	; 0x3de <tmp_get+0x44>
 3e2:	00 00       	nop
 3e4:	36 ff       	sbrs	r19, 6
 3e6:	02 c0       	rjmp	.+4      	; 0x3ec <tmp_get+0x52>
 3e8:	c8 2b       	or	r28, r24
 3ea:	d9 2b       	or	r29, r25
 3ec:	c7 9a       	sbi	0x18, 7	; 24
 3ee:	34 e1       	ldi	r19, 0x14	; 20
 3f0:	3a 95       	dec	r19
 3f2:	f1 f7       	brne	.-4      	; 0x3f0 <tmp_get+0x56>
 3f4:	00 c0       	rjmp	.+0      	; 0x3f6 <tmp_get+0x5c>
 3f6:	88 0f       	add	r24, r24
 3f8:	99 1f       	adc	r25, r25
 3fa:	21 50       	subi	r18, 0x01	; 1
 3fc:	49 f7       	brne	.-46     	; 0x3d0 <tmp_get+0x36>
 3fe:	63 e0       	ldi	r22, 0x03	; 3
 400:	80 e0       	ldi	r24, 0x00	; 0
 402:	0e 94 0d 02 	call	0x41a	; 0x41a <adr_set>
 406:	8f ef       	ldi	r24, 0xFF	; 255
 408:	95 e0       	ldi	r25, 0x05	; 5
 40a:	01 97       	sbiw	r24, 0x01	; 1
 40c:	f1 f7       	brne	.-4      	; 0x40a <tmp_get+0x70>
 40e:	00 c0       	rjmp	.+0      	; 0x410 <tmp_get+0x76>
 410:	00 00       	nop
 412:	ce 01       	movw	r24, r28
 414:	df 91       	pop	r29
 416:	cf 91       	pop	r28
 418:	08 95       	ret

0000041a <adr_set>:
 41a:	9f ef       	ldi	r25, 0xFF	; 255
 41c:	94 bb       	out	0x14, r25	; 20
 41e:	60 ff       	sbrs	r22, 0
 420:	02 c0       	rjmp	.+4      	; 0x426 <adr_set+0xc>
 422:	94 9a       	sbi	0x12, 4	; 18
 424:	01 c0       	rjmp	.+2      	; 0x428 <adr_set+0xe>
 426:	94 98       	cbi	0x12, 4	; 18
 428:	66 95       	lsr	r22
 42a:	60 ff       	sbrs	r22, 0
 42c:	02 c0       	rjmp	.+4      	; 0x432 <adr_set+0x18>
 42e:	95 9a       	sbi	0x12, 5	; 18
 430:	01 c0       	rjmp	.+2      	; 0x434 <adr_set+0x1a>
 432:	95 98       	cbi	0x12, 5	; 18
 434:	61 ff       	sbrs	r22, 1
 436:	02 c0       	rjmp	.+4      	; 0x43c <adr_set+0x22>
 438:	97 9a       	sbi	0x12, 7	; 18
 43a:	01 c0       	rjmp	.+2      	; 0x43e <adr_set+0x24>
 43c:	97 98       	cbi	0x12, 7	; 18
 43e:	85 bb       	out	0x15, r24	; 21
 440:	c4 98       	cbi	0x18, 4	; 24
 442:	84 e1       	ldi	r24, 0x14	; 20
 444:	8a 95       	dec	r24
 446:	f1 f7       	brne	.-4      	; 0x444 <adr_set+0x2a>
 448:	00 c0       	rjmp	.+0      	; 0x44a <adr_set+0x30>
 44a:	c4 9a       	sbi	0x18, 4	; 24
 44c:	08 95       	ret

0000044e <mem_read_byte>:
 44e:	1f 93       	push	r17
 450:	cf 93       	push	r28
 452:	df 93       	push	r29
 454:	1f 92       	push	r1
 456:	cd b7       	in	r28, 0x3d	; 61
 458:	de b7       	in	r29, 0x3e	; 62
 45a:	18 2f       	mov	r17, r24
 45c:	86 2f       	mov	r24, r22
 45e:	60 e0       	ldi	r22, 0x00	; 0
 460:	79 83       	std	Y+1, r23	; 0x01
 462:	0e 94 0d 02 	call	0x41a	; 0x41a <adr_set>
 466:	61 e0       	ldi	r22, 0x01	; 1
 468:	79 81       	ldd	r23, Y+1	; 0x01
 46a:	87 2f       	mov	r24, r23
 46c:	0e 94 0d 02 	call	0x41a	; 0x41a <adr_set>
 470:	62 e0       	ldi	r22, 0x02	; 2
 472:	81 2f       	mov	r24, r17
 474:	0e 94 0d 02 	call	0x41a	; 0x41a <adr_set>
 478:	15 ba       	out	0x15, r1	; 21
 47a:	14 ba       	out	0x14, r1	; 20
 47c:	c2 98       	cbi	0x18, 2	; 24
 47e:	82 e0       	ldi	r24, 0x02	; 2
 480:	8a 95       	dec	r24
 482:	f1 f7       	brne	.-4      	; 0x480 <mem_read_byte+0x32>
 484:	00 00       	nop
 486:	13 b3       	in	r17, 0x13	; 19
 488:	c2 9a       	sbi	0x18, 2	; 24
 48a:	60 e0       	ldi	r22, 0x00	; 0
 48c:	80 e0       	ldi	r24, 0x00	; 0
 48e:	0e 94 0d 02 	call	0x41a	; 0x41a <adr_set>
 492:	61 e0       	ldi	r22, 0x01	; 1
 494:	80 e0       	ldi	r24, 0x00	; 0
 496:	0e 94 0d 02 	call	0x41a	; 0x41a <adr_set>
 49a:	62 e0       	ldi	r22, 0x02	; 2
 49c:	80 e0       	ldi	r24, 0x00	; 0
 49e:	0e 94 0d 02 	call	0x41a	; 0x41a <adr_set>
 4a2:	81 2f       	mov	r24, r17
 4a4:	0f 90       	pop	r0
 4a6:	df 91       	pop	r29
 4a8:	cf 91       	pop	r28
 4aa:	1f 91       	pop	r17
 4ac:	08 95       	ret

000004ae <mem_command>:
 4ae:	1f 93       	push	r17
 4b0:	cf 93       	push	r28
 4b2:	df 93       	push	r29
 4b4:	00 d0       	rcall	.+0      	; 0x4b6 <mem_command+0x8>
 4b6:	cd b7       	in	r28, 0x3d	; 61
 4b8:	de b7       	in	r29, 0x3e	; 62
 4ba:	16 2f       	mov	r17, r22
 4bc:	9f ef       	ldi	r25, 0xFF	; 255
 4be:	94 bb       	out	0x14, r25	; 20
 4c0:	60 e0       	ldi	r22, 0x00	; 0
 4c2:	2a 83       	std	Y+2, r18	; 0x02
 4c4:	49 83       	std	Y+1, r20	; 0x01
 4c6:	0e 94 0d 02 	call	0x41a	; 0x41a <adr_set>
 4ca:	61 e0       	ldi	r22, 0x01	; 1
 4cc:	81 2f       	mov	r24, r17
 4ce:	0e 94 0d 02 	call	0x41a	; 0x41a <adr_set>
 4d2:	62 e0       	ldi	r22, 0x02	; 2
 4d4:	49 81       	ldd	r20, Y+1	; 0x01
 4d6:	84 2f       	mov	r24, r20
 4d8:	0e 94 0d 02 	call	0x41a	; 0x41a <adr_set>
 4dc:	c3 98       	cbi	0x18, 3	; 24
 4de:	2a 81       	ldd	r18, Y+2	; 0x02
 4e0:	25 bb       	out	0x15, r18	; 21
 4e2:	c3 9a       	sbi	0x18, 3	; 24
 4e4:	60 e0       	ldi	r22, 0x00	; 0
 4e6:	80 e0       	ldi	r24, 0x00	; 0
 4e8:	0e 94 0d 02 	call	0x41a	; 0x41a <adr_set>
 4ec:	61 e0       	ldi	r22, 0x01	; 1
 4ee:	80 e0       	ldi	r24, 0x00	; 0
 4f0:	0e 94 0d 02 	call	0x41a	; 0x41a <adr_set>
 4f4:	62 e0       	ldi	r22, 0x02	; 2
 4f6:	80 e0       	ldi	r24, 0x00	; 0
 4f8:	0f 90       	pop	r0
 4fa:	0f 90       	pop	r0
 4fc:	df 91       	pop	r29
 4fe:	cf 91       	pop	r28
 500:	1f 91       	pop	r17
 502:	0c 94 0d 02 	jmp	0x41a	; 0x41a <adr_set>

00000506 <mem_write_byte>:
 506:	ff 92       	push	r15
 508:	0f 93       	push	r16
 50a:	1f 93       	push	r17
 50c:	cf 93       	push	r28
 50e:	df 93       	push	r29
 510:	1f 92       	push	r1
 512:	cd b7       	in	r28, 0x3d	; 61
 514:	de b7       	in	r29, 0x3e	; 62
 516:	f8 2e       	mov	r15, r24
 518:	06 2f       	mov	r16, r22
 51a:	14 2f       	mov	r17, r20
 51c:	2a ea       	ldi	r18, 0xAA	; 170
 51e:	40 e0       	ldi	r20, 0x00	; 0
 520:	65 e0       	ldi	r22, 0x05	; 5
 522:	85 e5       	ldi	r24, 0x55	; 85
 524:	79 83       	std	Y+1, r23	; 0x01
 526:	0e 94 57 02 	call	0x4ae	; 0x4ae <mem_command>
 52a:	25 e5       	ldi	r18, 0x55	; 85
 52c:	40 e0       	ldi	r20, 0x00	; 0
 52e:	62 e0       	ldi	r22, 0x02	; 2
 530:	8a ea       	ldi	r24, 0xAA	; 170
 532:	0e 94 57 02 	call	0x4ae	; 0x4ae <mem_command>
 536:	20 ea       	ldi	r18, 0xA0	; 160
 538:	40 e0       	ldi	r20, 0x00	; 0
 53a:	65 e0       	ldi	r22, 0x05	; 5
 53c:	85 e5       	ldi	r24, 0x55	; 85
 53e:	0e 94 57 02 	call	0x4ae	; 0x4ae <mem_command>
 542:	21 2f       	mov	r18, r17
 544:	4f 2d       	mov	r20, r15
 546:	79 81       	ldd	r23, Y+1	; 0x01
 548:	67 2f       	mov	r22, r23
 54a:	80 2f       	mov	r24, r16
 54c:	0f 90       	pop	r0
 54e:	df 91       	pop	r29
 550:	cf 91       	pop	r28
 552:	1f 91       	pop	r17
 554:	0f 91       	pop	r16
 556:	ff 90       	pop	r15
 558:	0c 94 57 02 	jmp	0x4ae	; 0x4ae <mem_command>

0000055c <adr_reset>:
 55c:	61 e0       	ldi	r22, 0x01	; 1
 55e:	80 e0       	ldi	r24, 0x00	; 0
 560:	0e 94 0d 02 	call	0x41a	; 0x41a <adr_set>
 564:	62 e0       	ldi	r22, 0x02	; 2
 566:	80 e0       	ldi	r24, 0x00	; 0
 568:	0e 94 0d 02 	call	0x41a	; 0x41a <adr_set>
 56c:	63 e0       	ldi	r22, 0x03	; 3
 56e:	80 e0       	ldi	r24, 0x00	; 0
 570:	0e 94 0d 02 	call	0x41a	; 0x41a <adr_set>
 574:	64 e0       	ldi	r22, 0x04	; 4
 576:	80 e0       	ldi	r24, 0x00	; 0
 578:	0c 94 0d 02 	jmp	0x41a	; 0x41a <adr_set>

0000057c <adr_init>:
 57c:	8c 9a       	sbi	0x11, 4	; 17
 57e:	8d 9a       	sbi	0x11, 5	; 17
 580:	8f 9a       	sbi	0x11, 7	; 17
 582:	bc 9a       	sbi	0x17, 4	; 23
 584:	c4 9a       	sbi	0x18, 4	; 24
 586:	61 e0       	ldi	r22, 0x01	; 1
 588:	80 e0       	ldi	r24, 0x00	; 0
 58a:	0e 94 0d 02 	call	0x41a	; 0x41a <adr_set>
 58e:	62 e0       	ldi	r22, 0x02	; 2
 590:	80 e0       	ldi	r24, 0x00	; 0
 592:	0e 94 0d 02 	call	0x41a	; 0x41a <adr_set>
 596:	63 e0       	ldi	r22, 0x03	; 3
 598:	80 e0       	ldi	r24, 0x00	; 0
 59a:	0e 94 0d 02 	call	0x41a	; 0x41a <adr_set>
 59e:	64 e0       	ldi	r22, 0x04	; 4
 5a0:	80 e0       	ldi	r24, 0x00	; 0
 5a2:	0c 94 0d 02 	jmp	0x41a	; 0x41a <adr_set>

000005a6 <mem_chip_erase>:
 5a6:	2a ea       	ldi	r18, 0xAA	; 170
 5a8:	40 e0       	ldi	r20, 0x00	; 0
 5aa:	65 e0       	ldi	r22, 0x05	; 5
 5ac:	85 e5       	ldi	r24, 0x55	; 85
 5ae:	0e 94 57 02 	call	0x4ae	; 0x4ae <mem_command>
 5b2:	25 e5       	ldi	r18, 0x55	; 85
 5b4:	40 e0       	ldi	r20, 0x00	; 0
 5b6:	62 e0       	ldi	r22, 0x02	; 2
 5b8:	8a ea       	ldi	r24, 0xAA	; 170
 5ba:	0e 94 57 02 	call	0x4ae	; 0x4ae <mem_command>
 5be:	20 e8       	ldi	r18, 0x80	; 128
 5c0:	40 e0       	ldi	r20, 0x00	; 0
 5c2:	65 e0       	ldi	r22, 0x05	; 5
 5c4:	85 e5       	ldi	r24, 0x55	; 85
 5c6:	0e 94 57 02 	call	0x4ae	; 0x4ae <mem_command>
 5ca:	2a ea       	ldi	r18, 0xAA	; 170
 5cc:	40 e0       	ldi	r20, 0x00	; 0
 5ce:	65 e0       	ldi	r22, 0x05	; 5
 5d0:	85 e5       	ldi	r24, 0x55	; 85
 5d2:	0e 94 57 02 	call	0x4ae	; 0x4ae <mem_command>
 5d6:	25 e5       	ldi	r18, 0x55	; 85
 5d8:	40 e0       	ldi	r20, 0x00	; 0
 5da:	62 e0       	ldi	r22, 0x02	; 2
 5dc:	8a ea       	ldi	r24, 0xAA	; 170
 5de:	0e 94 57 02 	call	0x4ae	; 0x4ae <mem_command>
 5e2:	20 e1       	ldi	r18, 0x10	; 16
 5e4:	40 e0       	ldi	r20, 0x00	; 0
 5e6:	65 e0       	ldi	r22, 0x05	; 5
 5e8:	85 e5       	ldi	r24, 0x55	; 85
 5ea:	0e 94 57 02 	call	0x4ae	; 0x4ae <mem_command>
 5ee:	14 ba       	out	0x14, r1	; 20
 5f0:	83 b3       	in	r24, 0x13	; 19
 5f2:	8f 3f       	cpi	r24, 0xFF	; 255
 5f4:	e9 f7       	brne	.-6      	; 0x5f0 <mem_chip_erase+0x4a>
 5f6:	4f e0       	ldi	r20, 0x0F	; 15
 5f8:	60 e0       	ldi	r22, 0x00	; 0
 5fa:	70 e0       	ldi	r23, 0x00	; 0
 5fc:	80 e0       	ldi	r24, 0x00	; 0
 5fe:	0c 94 83 02 	jmp	0x506	; 0x506 <mem_write_byte>

00000602 <mem_sector_erase>:
 602:	cf 93       	push	r28
 604:	c8 2f       	mov	r28, r24
 606:	2a ea       	ldi	r18, 0xAA	; 170
 608:	40 e0       	ldi	r20, 0x00	; 0
 60a:	65 e0       	ldi	r22, 0x05	; 5
 60c:	85 e5       	ldi	r24, 0x55	; 85
 60e:	0e 94 57 02 	call	0x4ae	; 0x4ae <mem_command>
 612:	25 e5       	ldi	r18, 0x55	; 85
 614:	40 e0       	ldi	r20, 0x00	; 0
 616:	62 e0       	ldi	r22, 0x02	; 2
 618:	8a ea       	ldi	r24, 0xAA	; 170
 61a:	0e 94 57 02 	call	0x4ae	; 0x4ae <mem_command>
 61e:	20 e8       	ldi	r18, 0x80	; 128
 620:	40 e0       	ldi	r20, 0x00	; 0
 622:	65 e0       	ldi	r22, 0x05	; 5
 624:	85 e5       	ldi	r24, 0x55	; 85
 626:	0e 94 57 02 	call	0x4ae	; 0x4ae <mem_command>
 62a:	2a ea       	ldi	r18, 0xAA	; 170
 62c:	40 e0       	ldi	r20, 0x00	; 0
 62e:	65 e0       	ldi	r22, 0x05	; 5
 630:	85 e5       	ldi	r24, 0x55	; 85
 632:	0e 94 57 02 	call	0x4ae	; 0x4ae <mem_command>
 636:	25 e5       	ldi	r18, 0x55	; 85
 638:	40 e0       	ldi	r20, 0x00	; 0
 63a:	62 e0       	ldi	r22, 0x02	; 2
 63c:	8a ea       	ldi	r24, 0xAA	; 170
 63e:	0e 94 57 02 	call	0x4ae	; 0x4ae <mem_command>
 642:	20 e3       	ldi	r18, 0x30	; 48
 644:	4c 2f       	mov	r20, r28
 646:	60 e0       	ldi	r22, 0x00	; 0
 648:	80 e0       	ldi	r24, 0x00	; 0
 64a:	0e 94 57 02 	call	0x4ae	; 0x4ae <mem_command>
 64e:	14 ba       	out	0x14, r1	; 20
 650:	83 b3       	in	r24, 0x13	; 19
 652:	8f 3f       	cpi	r24, 0xFF	; 255
 654:	e9 f7       	brne	.-6      	; 0x650 <mem_sector_erase+0x4e>
 656:	cf 91       	pop	r28
 658:	08 95       	ret

0000065a <mem_write_data>:
 65a:	ff 92       	push	r15
 65c:	0f 93       	push	r16
 65e:	1f 93       	push	r17
 660:	cf 93       	push	r28
 662:	df 93       	push	r29
 664:	08 2f       	mov	r16, r24
 666:	f9 2e       	mov	r15, r25
 668:	16 2f       	mov	r17, r22
 66a:	66 23       	and	r22, r22
 66c:	09 f4       	brne	.+2      	; 0x670 <mem_write_data+0x16>
 66e:	60 c0       	rjmp	.+192    	; 0x730 <mem_write_data+0xd6>
 670:	20 91 27 01 	lds	r18, 0x0127
 674:	30 91 28 01 	lds	r19, 0x0128
 678:	20 95       	com	r18
 67a:	30 95       	com	r19
 67c:	e6 2f       	mov	r30, r22
 67e:	f0 e0       	ldi	r31, 0x00	; 0
 680:	32 96       	adiw	r30, 0x02	; 2
 682:	2e 17       	cp	r18, r30
 684:	3f 07       	cpc	r19, r31
 686:	38 f5       	brcc	.+78     	; 0x6d6 <mem_write_data+0x7c>
 688:	40 e0       	ldi	r20, 0x00	; 0
 68a:	60 e0       	ldi	r22, 0x00	; 0
 68c:	70 e0       	ldi	r23, 0x00	; 0
 68e:	80 91 29 01 	lds	r24, 0x0129
 692:	0e 94 83 02 	call	0x506	; 0x506 <mem_write_byte>
 696:	20 91 29 01 	lds	r18, 0x0129
 69a:	30 e0       	ldi	r19, 0x00	; 0
 69c:	c9 01       	movw	r24, r18
 69e:	01 96       	adiw	r24, 0x01	; 1
 6a0:	87 70       	andi	r24, 0x07	; 7
 6a2:	99 27       	eor	r25, r25
 6a4:	80 93 29 01 	sts	0x0129, r24
 6a8:	60 e0       	ldi	r22, 0x00	; 0
 6aa:	70 e0       	ldi	r23, 0x00	; 0
 6ac:	0e 94 27 02 	call	0x44e	; 0x44e <mem_read_byte>
 6b0:	8f 3f       	cpi	r24, 0xFF	; 255
 6b2:	21 f0       	breq	.+8      	; 0x6bc <mem_write_data+0x62>
 6b4:	80 91 29 01 	lds	r24, 0x0129
 6b8:	0e 94 01 03 	call	0x602	; 0x602 <mem_sector_erase>
 6bc:	4f e0       	ldi	r20, 0x0F	; 15
 6be:	60 e0       	ldi	r22, 0x00	; 0
 6c0:	70 e0       	ldi	r23, 0x00	; 0
 6c2:	80 91 29 01 	lds	r24, 0x0129
 6c6:	0e 94 83 02 	call	0x506	; 0x506 <mem_write_byte>
 6ca:	21 e0       	ldi	r18, 0x01	; 1
 6cc:	30 e0       	ldi	r19, 0x00	; 0
 6ce:	30 93 28 01 	sts	0x0128, r19
 6d2:	20 93 27 01 	sts	0x0127, r18
 6d6:	60 91 27 01 	lds	r22, 0x0127
 6da:	70 91 28 01 	lds	r23, 0x0128
 6de:	41 2f       	mov	r20, r17
 6e0:	80 91 29 01 	lds	r24, 0x0129
 6e4:	0e 94 83 02 	call	0x506	; 0x506 <mem_write_byte>
 6e8:	20 91 27 01 	lds	r18, 0x0127
 6ec:	30 91 28 01 	lds	r19, 0x0128
 6f0:	2f 5f       	subi	r18, 0xFF	; 255
 6f2:	3f 4f       	sbci	r19, 0xFF	; 255
 6f4:	30 93 28 01 	sts	0x0128, r19
 6f8:	20 93 27 01 	sts	0x0127, r18
 6fc:	c0 2f       	mov	r28, r16
 6fe:	df 2d       	mov	r29, r15
 700:	13 c0       	rjmp	.+38     	; 0x728 <mem_write_data+0xce>
 702:	60 91 27 01 	lds	r22, 0x0127
 706:	70 91 28 01 	lds	r23, 0x0128
 70a:	49 91       	ld	r20, Y+
 70c:	80 91 29 01 	lds	r24, 0x0129
 710:	0e 94 83 02 	call	0x506	; 0x506 <mem_write_byte>
 714:	20 91 27 01 	lds	r18, 0x0127
 718:	30 91 28 01 	lds	r19, 0x0128
 71c:	2f 5f       	subi	r18, 0xFF	; 255
 71e:	3f 4f       	sbci	r19, 0xFF	; 255
 720:	30 93 28 01 	sts	0x0128, r19
 724:	20 93 27 01 	sts	0x0127, r18
 728:	8c 2f       	mov	r24, r28
 72a:	80 1b       	sub	r24, r16
 72c:	81 17       	cp	r24, r17
 72e:	48 f3       	brcs	.-46     	; 0x702 <mem_write_data+0xa8>
 730:	df 91       	pop	r29
 732:	cf 91       	pop	r28
 734:	1f 91       	pop	r17
 736:	0f 91       	pop	r16
 738:	ff 90       	pop	r15
 73a:	08 95       	ret

0000073c <mem_print_sector>:
 73c:	ef 92       	push	r14
 73e:	ff 92       	push	r15
 740:	0f 93       	push	r16
 742:	1f 93       	push	r17
 744:	cf 93       	push	r28
 746:	df 93       	push	r29
 748:	f8 2e       	mov	r15, r24
 74a:	c1 e0       	ldi	r28, 0x01	; 1
 74c:	d0 e0       	ldi	r29, 0x00	; 0
 74e:	13 c0       	rjmp	.+38     	; 0x776 <mem_print_sector+0x3a>
 750:	be 01       	movw	r22, r28
 752:	8f 2d       	mov	r24, r15
 754:	0e 94 27 02 	call	0x44e	; 0x44e <mem_read_byte>
 758:	e8 2e       	mov	r14, r24
 75a:	8e 01       	movw	r16, r28
 75c:	0f 5f       	subi	r16, 0xFF	; 255
 75e:	1f 4f       	sbci	r17, 0xFF	; 255
 760:	b8 01       	movw	r22, r16
 762:	8f 2d       	mov	r24, r15
 764:	0e 94 27 02 	call	0x44e	; 0x44e <mem_read_byte>
 768:	0e 94 f4 05 	call	0xbe8	; 0xbe8 <uart_send_char>
 76c:	80 2f       	mov	r24, r16
 76e:	8c 1b       	sub	r24, r28
 770:	e8 16       	cp	r14, r24
 772:	a0 f7       	brcc	.-24     	; 0x75c <mem_print_sector+0x20>
 774:	e8 01       	movw	r28, r16
 776:	be 01       	movw	r22, r28
 778:	8f 2d       	mov	r24, r15
 77a:	0e 94 27 02 	call	0x44e	; 0x44e <mem_read_byte>
 77e:	8f 3f       	cpi	r24, 0xFF	; 255
 780:	39 f7       	brne	.-50     	; 0x750 <mem_print_sector+0x14>
 782:	df 91       	pop	r29
 784:	cf 91       	pop	r28
 786:	1f 91       	pop	r17
 788:	0f 91       	pop	r16
 78a:	ff 90       	pop	r15
 78c:	ef 90       	pop	r14
 78e:	08 95       	ret

00000790 <mem_init>:
 790:	1f 93       	push	r17
 792:	cf 93       	push	r28
 794:	df 93       	push	r29
 796:	bb 9a       	sbi	0x17, 3	; 23
 798:	ba 9a       	sbi	0x17, 2	; 23
 79a:	c2 9a       	sbi	0x18, 2	; 24
 79c:	c3 9a       	sbi	0x18, 3	; 24
 79e:	10 e0       	ldi	r17, 0x00	; 0
 7a0:	60 e0       	ldi	r22, 0x00	; 0
 7a2:	70 e0       	ldi	r23, 0x00	; 0
 7a4:	81 2f       	mov	r24, r17
 7a6:	0e 94 27 02 	call	0x44e	; 0x44e <mem_read_byte>
 7aa:	8f 30       	cpi	r24, 0x0F	; 15
 7ac:	29 f0       	breq	.+10     	; 0x7b8 <mem_init+0x28>
 7ae:	1f 5f       	subi	r17, 0xFF	; 255
 7b0:	18 30       	cpi	r17, 0x08	; 8
 7b2:	b1 f7       	brne	.-20     	; 0x7a0 <mem_init+0x10>
 7b4:	c0 e0       	ldi	r28, 0x00	; 0
 7b6:	1e c0       	rjmp	.+60     	; 0x7f4 <mem_init+0x64>
 7b8:	8f e6       	ldi	r24, 0x6F	; 111
 7ba:	90 e0       	ldi	r25, 0x00	; 0
 7bc:	0e 94 e7 05 	call	0xbce	; 0xbce <uart_send>
 7c0:	10 93 29 01 	sts	0x0129, r17
 7c4:	c1 e0       	ldi	r28, 0x01	; 1
 7c6:	d0 e0       	ldi	r29, 0x00	; 0
 7c8:	0a c0       	rjmp	.+20     	; 0x7de <mem_init+0x4e>
 7ca:	be 01       	movw	r22, r28
 7cc:	81 2f       	mov	r24, r17
 7ce:	0e 94 27 02 	call	0x44e	; 0x44e <mem_read_byte>
 7d2:	28 2f       	mov	r18, r24
 7d4:	30 e0       	ldi	r19, 0x00	; 0
 7d6:	2f 5f       	subi	r18, 0xFF	; 255
 7d8:	3f 4f       	sbci	r19, 0xFF	; 255
 7da:	c2 0f       	add	r28, r18
 7dc:	d3 1f       	adc	r29, r19
 7de:	be 01       	movw	r22, r28
 7e0:	81 2f       	mov	r24, r17
 7e2:	0e 94 27 02 	call	0x44e	; 0x44e <mem_read_byte>
 7e6:	8f 3f       	cpi	r24, 0xFF	; 255
 7e8:	81 f7       	brne	.-32     	; 0x7ca <mem_init+0x3a>
 7ea:	d0 93 28 01 	sts	0x0128, r29
 7ee:	c0 93 27 01 	sts	0x0127, r28
 7f2:	2b c0       	rjmp	.+86     	; 0x84a <mem_init+0xba>
 7f4:	60 e0       	ldi	r22, 0x00	; 0
 7f6:	70 e0       	ldi	r23, 0x00	; 0
 7f8:	8c 2f       	mov	r24, r28
 7fa:	0e 94 27 02 	call	0x44e	; 0x44e <mem_read_byte>
 7fe:	8f 3f       	cpi	r24, 0xFF	; 255
 800:	21 f0       	breq	.+8      	; 0x80a <mem_init+0x7a>
 802:	cf 5f       	subi	r28, 0xFF	; 255
 804:	c8 30       	cpi	r28, 0x08	; 8
 806:	b1 f7       	brne	.-20     	; 0x7f4 <mem_init+0x64>
 808:	0c c0       	rjmp	.+24     	; 0x822 <mem_init+0x92>
 80a:	c0 93 29 01 	sts	0x0129, r28
 80e:	8c e7       	ldi	r24, 0x7C	; 124
 810:	90 e0       	ldi	r25, 0x00	; 0
 812:	0e 94 e7 05 	call	0xbce	; 0xbce <uart_send>
 816:	4f e0       	ldi	r20, 0x0F	; 15
 818:	60 e0       	ldi	r22, 0x00	; 0
 81a:	70 e0       	ldi	r23, 0x00	; 0
 81c:	80 91 29 01 	lds	r24, 0x0129
 820:	0c c0       	rjmp	.+24     	; 0x83a <mem_init+0xaa>
 822:	88 e8       	ldi	r24, 0x88	; 136
 824:	90 e0       	ldi	r25, 0x00	; 0
 826:	0e 94 e7 05 	call	0xbce	; 0xbce <uart_send>
 82a:	0e 94 d3 02 	call	0x5a6	; 0x5a6 <mem_chip_erase>
 82e:	10 92 29 01 	sts	0x0129, r1
 832:	4f e0       	ldi	r20, 0x0F	; 15
 834:	60 e0       	ldi	r22, 0x00	; 0
 836:	70 e0       	ldi	r23, 0x00	; 0
 838:	80 e0       	ldi	r24, 0x00	; 0
 83a:	0e 94 83 02 	call	0x506	; 0x506 <mem_write_byte>
 83e:	81 e0       	ldi	r24, 0x01	; 1
 840:	90 e0       	ldi	r25, 0x00	; 0
 842:	90 93 28 01 	sts	0x0128, r25
 846:	80 93 27 01 	sts	0x0127, r24
 84a:	8e e9       	ldi	r24, 0x9E	; 158
 84c:	90 e0       	ldi	r25, 0x00	; 0
 84e:	0e 94 e7 05 	call	0xbce	; 0xbce <uart_send>
 852:	80 91 29 01 	lds	r24, 0x0129
 856:	0e 94 f4 05 	call	0xbe8	; 0xbe8 <uart_send_char>
 85a:	80 91 28 01 	lds	r24, 0x0128
 85e:	0e 94 f4 05 	call	0xbe8	; 0xbe8 <uart_send_char>
 862:	80 91 27 01 	lds	r24, 0x0127
 866:	df 91       	pop	r29
 868:	cf 91       	pop	r28
 86a:	1f 91       	pop	r17
 86c:	0c 94 f4 05 	jmp	0xbe8	; 0xbe8 <uart_send_char>

00000870 <time_tmp_reset>:
 870:	10 92 30 01 	sts	0x0130, r1
 874:	10 92 31 01 	sts	0x0131, r1
 878:	10 92 32 01 	sts	0x0132, r1
 87c:	10 92 33 01 	sts	0x0133, r1
 880:	10 92 34 01 	sts	0x0134, r1
 884:	10 92 2c 01 	sts	0x012C, r1
 888:	10 92 2d 01 	sts	0x012D, r1
 88c:	10 92 2e 01 	sts	0x012E, r1
 890:	10 92 2b 01 	sts	0x012B, r1
 894:	10 92 2a 01 	sts	0x012A, r1
 898:	08 95       	ret

0000089a <time_init>:
 89a:	0e 94 38 04 	call	0x870	; 0x870 <time_tmp_reset>
 89e:	10 92 57 01 	sts	0x0157, r1
 8a2:	10 92 58 01 	sts	0x0158, r1
 8a6:	10 92 59 01 	sts	0x0159, r1
 8aa:	10 92 5a 01 	sts	0x015A, r1
 8ae:	10 92 5b 01 	sts	0x015B, r1
 8b2:	10 92 5c 01 	sts	0x015C, r1
 8b6:	85 b5       	in	r24, 0x25	; 37
 8b8:	87 7f       	andi	r24, 0xF7	; 247
 8ba:	85 bd       	out	0x25, r24	; 37
 8bc:	85 b5       	in	r24, 0x25	; 37
 8be:	8f 7b       	andi	r24, 0xBF	; 191
 8c0:	85 bd       	out	0x25, r24	; 37
 8c2:	14 bc       	out	0x24, r1	; 36
 8c4:	85 b5       	in	r24, 0x25	; 37
 8c6:	84 60       	ori	r24, 0x04	; 4
 8c8:	85 bd       	out	0x25, r24	; 37
 8ca:	85 b5       	in	r24, 0x25	; 37
 8cc:	82 60       	ori	r24, 0x02	; 2
 8ce:	85 bd       	out	0x25, r24	; 37
 8d0:	85 b5       	in	r24, 0x25	; 37
 8d2:	8e 7f       	andi	r24, 0xFE	; 254
 8d4:	85 bd       	out	0x25, r24	; 37
 8d6:	89 b7       	in	r24, 0x39	; 57
 8d8:	80 64       	ori	r24, 0x40	; 64
 8da:	89 bf       	out	0x39, r24	; 57
 8dc:	85 b7       	in	r24, 0x35	; 53
 8de:	84 60       	ori	r24, 0x04	; 4
 8e0:	85 bf       	out	0x35, r24	; 53
 8e2:	8b 98       	cbi	0x11, 3	; 17
 8e4:	8b b7       	in	r24, 0x3b	; 59
 8e6:	80 68       	ori	r24, 0x80	; 128
 8e8:	8b bf       	out	0x3b, r24	; 59
 8ea:	80 e4       	ldi	r24, 0x40	; 64
 8ec:	92 ea       	ldi	r25, 0xA2	; 162
 8ee:	9d bd       	out	0x2d, r25	; 45
 8f0:	8c bd       	out	0x2c, r24	; 44
 8f2:	89 b7       	in	r24, 0x39	; 57
 8f4:	84 60       	ori	r24, 0x04	; 4
 8f6:	89 bf       	out	0x39, r24	; 57
 8f8:	8e b5       	in	r24, 0x2e	; 46
 8fa:	84 60       	ori	r24, 0x04	; 4
 8fc:	8e bd       	out	0x2e, r24	; 46
 8fe:	78 94       	sei
 900:	08 95       	ret

00000902 <isr>:
 902:	80 91 2a 01 	lds	r24, 0x012A
 906:	10 92 2a 01 	sts	0x012A, r1
 90a:	83 99       	sbic	0x10, 3	; 16
 90c:	68 c0       	rjmp	.+208    	; 0x9de <isr+0xdc>
 90e:	8f 30       	cpi	r24, 0x0F	; 15
 910:	10 f4       	brcc	.+4      	; 0x916 <isr+0x14>
 912:	80 e0       	ldi	r24, 0x00	; 0
 914:	01 c0       	rjmp	.+2      	; 0x918 <isr+0x16>
 916:	80 e8       	ldi	r24, 0x80	; 128
 918:	90 91 2b 01 	lds	r25, 0x012B
 91c:	95 31       	cpi	r25, 0x15	; 21
 91e:	08 f4       	brcc	.+2      	; 0x922 <isr+0x20>
 920:	59 c0       	rjmp	.+178    	; 0x9d4 <isr+0xd2>
 922:	90 91 2b 01 	lds	r25, 0x012B
 926:	9c 31       	cpi	r25, 0x1C	; 28
 928:	38 f4       	brcc	.+14     	; 0x938 <isr+0x36>
 92a:	90 91 30 01 	lds	r25, 0x0130
 92e:	96 95       	lsr	r25
 930:	98 0f       	add	r25, r24
 932:	90 93 30 01 	sts	0x0130, r25
 936:	04 c0       	rjmp	.+8      	; 0x940 <isr+0x3e>
 938:	90 91 2b 01 	lds	r25, 0x012B
 93c:	9c 31       	cpi	r25, 0x1C	; 28
 93e:	31 f4       	brne	.+12     	; 0x94c <isr+0x4a>
 940:	90 91 2c 01 	lds	r25, 0x012C
 944:	98 0f       	add	r25, r24
 946:	90 93 2c 01 	sts	0x012C, r25
 94a:	44 c0       	rjmp	.+136    	; 0x9d4 <isr+0xd2>
 94c:	90 91 2b 01 	lds	r25, 0x012B
 950:	93 32       	cpi	r25, 0x23	; 35
 952:	38 f4       	brcc	.+14     	; 0x962 <isr+0x60>
 954:	90 91 31 01 	lds	r25, 0x0131
 958:	96 95       	lsr	r25
 95a:	98 0f       	add	r25, r24
 95c:	90 93 31 01 	sts	0x0131, r25
 960:	04 c0       	rjmp	.+8      	; 0x96a <isr+0x68>
 962:	90 91 2b 01 	lds	r25, 0x012B
 966:	93 32       	cpi	r25, 0x23	; 35
 968:	31 f4       	brne	.+12     	; 0x976 <isr+0x74>
 96a:	90 91 2d 01 	lds	r25, 0x012D
 96e:	98 0f       	add	r25, r24
 970:	90 93 2d 01 	sts	0x012D, r25
 974:	2f c0       	rjmp	.+94     	; 0x9d4 <isr+0xd2>
 976:	90 91 2b 01 	lds	r25, 0x012B
 97a:	9a 32       	cpi	r25, 0x2A	; 42
 97c:	38 f4       	brcc	.+14     	; 0x98c <isr+0x8a>
 97e:	90 91 32 01 	lds	r25, 0x0132
 982:	96 95       	lsr	r25
 984:	98 0f       	add	r25, r24
 986:	90 93 32 01 	sts	0x0132, r25
 98a:	1f c0       	rjmp	.+62     	; 0x9ca <isr+0xc8>
 98c:	90 91 2b 01 	lds	r25, 0x012B
 990:	9d 32       	cpi	r25, 0x2D	; 45
 992:	08 f4       	brcc	.+2      	; 0x996 <isr+0x94>
 994:	1a c0       	rjmp	.+52     	; 0x9ca <isr+0xc8>
 996:	90 91 2b 01 	lds	r25, 0x012B
 99a:	92 33       	cpi	r25, 0x32	; 50
 99c:	38 f4       	brcc	.+14     	; 0x9ac <isr+0xaa>
 99e:	90 91 33 01 	lds	r25, 0x0133
 9a2:	96 95       	lsr	r25
 9a4:	98 0f       	add	r25, r24
 9a6:	90 93 33 01 	sts	0x0133, r25
 9aa:	0f c0       	rjmp	.+30     	; 0x9ca <isr+0xc8>
 9ac:	90 91 2b 01 	lds	r25, 0x012B
 9b0:	9a 33       	cpi	r25, 0x3A	; 58
 9b2:	38 f4       	brcc	.+14     	; 0x9c2 <isr+0xc0>
 9b4:	90 91 34 01 	lds	r25, 0x0134
 9b8:	96 95       	lsr	r25
 9ba:	98 0f       	add	r25, r24
 9bc:	90 93 34 01 	sts	0x0134, r25
 9c0:	04 c0       	rjmp	.+8      	; 0x9ca <isr+0xc8>
 9c2:	90 91 2b 01 	lds	r25, 0x012B
 9c6:	9a 33       	cpi	r25, 0x3A	; 58
 9c8:	29 f4       	brne	.+10     	; 0x9d4 <isr+0xd2>
 9ca:	90 91 2e 01 	lds	r25, 0x012E
 9ce:	98 0f       	add	r25, r24
 9d0:	90 93 2e 01 	sts	0x012E, r25
 9d4:	80 91 2b 01 	lds	r24, 0x012B
 9d8:	8f 5f       	subi	r24, 0xFF	; 255
 9da:	80 93 2b 01 	sts	0x012B, r24
 9de:	08 95       	ret

000009e0 <__vector_5>:
 9e0:	1f 92       	push	r1
 9e2:	0f 92       	push	r0
 9e4:	0f b6       	in	r0, 0x3f	; 63
 9e6:	0f 92       	push	r0
 9e8:	11 24       	eor	r1, r1
 9ea:	2f 93       	push	r18
 9ec:	3f 93       	push	r19
 9ee:	4f 93       	push	r20
 9f0:	5f 93       	push	r21
 9f2:	6f 93       	push	r22
 9f4:	7f 93       	push	r23
 9f6:	8f 93       	push	r24
 9f8:	9f 93       	push	r25
 9fa:	af 93       	push	r26
 9fc:	bf 93       	push	r27
 9fe:	ef 93       	push	r30
 a00:	ff 93       	push	r31
 a02:	80 91 2a 01 	lds	r24, 0x012A
 a06:	8e 35       	cpi	r24, 0x5E	; 94
 a08:	d1 f5       	brne	.+116    	; 0xa7e <__vector_5+0x9e>
 a0a:	80 91 2b 01 	lds	r24, 0x012B
 a0e:	8b 33       	cpi	r24, 0x3B	; 59
 a10:	a1 f5       	brne	.+104    	; 0xa7a <__vector_5+0x9a>
 a12:	80 91 2c 01 	lds	r24, 0x012C
 a16:	81 11       	cpse	r24, r1
 a18:	30 c0       	rjmp	.+96     	; 0xa7a <__vector_5+0x9a>
 a1a:	80 91 2d 01 	lds	r24, 0x012D
 a1e:	81 11       	cpse	r24, r1
 a20:	2c c0       	rjmp	.+88     	; 0xa7a <__vector_5+0x9a>
 a22:	80 91 2e 01 	lds	r24, 0x012E
 a26:	81 11       	cpse	r24, r1
 a28:	28 c0       	rjmp	.+80     	; 0xa7a <__vector_5+0x9a>
 a2a:	80 91 30 01 	lds	r24, 0x0130
 a2e:	86 95       	lsr	r24
 a30:	0e 94 0d 07 	call	0xe1a	; 0xe1a <BCD_to_Bin>
 a34:	80 93 58 01 	sts	0x0158, r24
 a38:	80 91 31 01 	lds	r24, 0x0131
 a3c:	86 95       	lsr	r24
 a3e:	86 95       	lsr	r24
 a40:	0e 94 0d 07 	call	0xe1a	; 0xe1a <BCD_to_Bin>
 a44:	80 93 59 01 	sts	0x0159, r24
 a48:	80 91 32 01 	lds	r24, 0x0132
 a4c:	86 95       	lsr	r24
 a4e:	86 95       	lsr	r24
 a50:	0e 94 0d 07 	call	0xe1a	; 0xe1a <BCD_to_Bin>
 a54:	80 93 5a 01 	sts	0x015A, r24
 a58:	80 91 33 01 	lds	r24, 0x0133
 a5c:	86 95       	lsr	r24
 a5e:	86 95       	lsr	r24
 a60:	86 95       	lsr	r24
 a62:	0e 94 0d 07 	call	0xe1a	; 0xe1a <BCD_to_Bin>
 a66:	80 93 5b 01 	sts	0x015B, r24
 a6a:	80 91 34 01 	lds	r24, 0x0134
 a6e:	0e 94 0d 07 	call	0xe1a	; 0xe1a <BCD_to_Bin>
 a72:	80 93 5c 01 	sts	0x015C, r24
 a76:	10 92 57 01 	sts	0x0157, r1
 a7a:	0e 94 38 04 	call	0x870	; 0x870 <time_tmp_reset>
 a7e:	80 91 2a 01 	lds	r24, 0x012A
 a82:	8f 5f       	subi	r24, 0xFF	; 255
 a84:	80 93 2a 01 	sts	0x012A, r24
 a88:	ff 91       	pop	r31
 a8a:	ef 91       	pop	r30
 a8c:	bf 91       	pop	r27
 a8e:	af 91       	pop	r26
 a90:	9f 91       	pop	r25
 a92:	8f 91       	pop	r24
 a94:	7f 91       	pop	r23
 a96:	6f 91       	pop	r22
 a98:	5f 91       	pop	r21
 a9a:	4f 91       	pop	r20
 a9c:	3f 91       	pop	r19
 a9e:	2f 91       	pop	r18
 aa0:	0f 90       	pop	r0
 aa2:	0f be       	out	0x3f, r0	; 63
 aa4:	0f 90       	pop	r0
 aa6:	1f 90       	pop	r1
 aa8:	18 95       	reti

00000aaa <__vector_9>:
 aaa:	1f 92       	push	r1
 aac:	0f 92       	push	r0
 aae:	0f b6       	in	r0, 0x3f	; 63
 ab0:	0f 92       	push	r0
 ab2:	11 24       	eor	r1, r1
 ab4:	2f 93       	push	r18
 ab6:	3f 93       	push	r19
 ab8:	5f 93       	push	r21
 aba:	6f 93       	push	r22
 abc:	7f 93       	push	r23
 abe:	8f 93       	push	r24
 ac0:	9f 93       	push	r25
 ac2:	af 93       	push	r26
 ac4:	bf 93       	push	r27
 ac6:	ef 93       	push	r30
 ac8:	ff 93       	push	r31
 aca:	80 e4       	ldi	r24, 0x40	; 64
 acc:	92 ea       	ldi	r25, 0xA2	; 162
 ace:	9d bd       	out	0x2d, r25	; 45
 ad0:	8c bd       	out	0x2c, r24	; 44
 ad2:	80 91 57 01 	lds	r24, 0x0157
 ad6:	8f 5f       	subi	r24, 0xFF	; 255
 ad8:	80 93 57 01 	sts	0x0157, r24
 adc:	80 91 57 01 	lds	r24, 0x0157
 ae0:	8c 33       	cpi	r24, 0x3C	; 60
 ae2:	09 f0       	breq	.+2      	; 0xae6 <__vector_9+0x3c>
 ae4:	64 c0       	rjmp	.+200    	; 0xbae <__vector_9+0x104>
 ae6:	10 92 57 01 	sts	0x0157, r1
 aea:	80 91 58 01 	lds	r24, 0x0158
 aee:	8f 5f       	subi	r24, 0xFF	; 255
 af0:	80 93 58 01 	sts	0x0158, r24
 af4:	80 91 58 01 	lds	r24, 0x0158
 af8:	8c 33       	cpi	r24, 0x3C	; 60
 afa:	09 f0       	breq	.+2      	; 0xafe <__vector_9+0x54>
 afc:	58 c0       	rjmp	.+176    	; 0xbae <__vector_9+0x104>
 afe:	10 92 58 01 	sts	0x0158, r1
 b02:	80 91 59 01 	lds	r24, 0x0159
 b06:	8f 5f       	subi	r24, 0xFF	; 255
 b08:	80 93 59 01 	sts	0x0159, r24
 b0c:	80 91 59 01 	lds	r24, 0x0159
 b10:	88 31       	cpi	r24, 0x18	; 24
 b12:	09 f0       	breq	.+2      	; 0xb16 <__vector_9+0x6c>
 b14:	4c c0       	rjmp	.+152    	; 0xbae <__vector_9+0x104>
 b16:	10 92 59 01 	sts	0x0159, r1
 b1a:	80 91 5a 01 	lds	r24, 0x015A
 b1e:	8f 5f       	subi	r24, 0xFF	; 255
 b20:	80 93 5a 01 	sts	0x015A, r24
 b24:	e0 91 5a 01 	lds	r30, 0x015A
 b28:	f0 e0       	ldi	r31, 0x00	; 0
 b2a:	20 91 5c 01 	lds	r18, 0x015C
 b2e:	80 91 5b 01 	lds	r24, 0x015B
 b32:	82 30       	cpi	r24, 0x02	; 2
 b34:	b1 f4       	brne	.+44     	; 0xb62 <__vector_9+0xb8>
 b36:	30 e0       	ldi	r19, 0x00	; 0
 b38:	20 53       	subi	r18, 0x30	; 48
 b3a:	38 4f       	sbci	r19, 0xF8	; 248
 b3c:	c9 01       	movw	r24, r18
 b3e:	60 e9       	ldi	r22, 0x90	; 144
 b40:	71 e0       	ldi	r23, 0x01	; 1
 b42:	0e 94 37 07 	call	0xe6e	; 0xe6e <__udivmodhi4>
 b46:	89 2b       	or	r24, r25
 b48:	c1 f0       	breq	.+48     	; 0xb7a <__vector_9+0xd0>
 b4a:	c9 01       	movw	r24, r18
 b4c:	64 e6       	ldi	r22, 0x64	; 100
 b4e:	70 e0       	ldi	r23, 0x00	; 0
 b50:	0e 94 37 07 	call	0xe6e	; 0xe6e <__udivmodhi4>
 b54:	89 2b       	or	r24, r25
 b56:	49 f1       	breq	.+82     	; 0xbaa <__vector_9+0x100>
 b58:	23 70       	andi	r18, 0x03	; 3
 b5a:	33 27       	eor	r19, r19
 b5c:	23 2b       	or	r18, r19
 b5e:	29 f5       	brne	.+74     	; 0xbaa <__vector_9+0x100>
 b60:	0c c0       	rjmp	.+24     	; 0xb7a <__vector_9+0xd0>
 b62:	84 30       	cpi	r24, 0x04	; 4
 b64:	11 f4       	brne	.+4      	; 0xb6a <__vector_9+0xc0>
 b66:	8e e1       	ldi	r24, 0x1E	; 30
 b68:	09 c0       	rjmp	.+18     	; 0xb7c <__vector_9+0xd2>
 b6a:	86 30       	cpi	r24, 0x06	; 6
 b6c:	e1 f3       	breq	.-8      	; 0xb66 <__vector_9+0xbc>
 b6e:	89 30       	cpi	r24, 0x09	; 9
 b70:	d1 f3       	breq	.-12     	; 0xb66 <__vector_9+0xbc>
 b72:	8b 30       	cpi	r24, 0x0B	; 11
 b74:	c1 f3       	breq	.-16     	; 0xb66 <__vector_9+0xbc>
 b76:	8f e1       	ldi	r24, 0x1F	; 31
 b78:	01 c0       	rjmp	.+2      	; 0xb7c <__vector_9+0xd2>
 b7a:	8c e1       	ldi	r24, 0x1C	; 28
 b7c:	90 e0       	ldi	r25, 0x00	; 0
 b7e:	01 96       	adiw	r24, 0x01	; 1
 b80:	e8 17       	cp	r30, r24
 b82:	f9 07       	cpc	r31, r25
 b84:	a1 f4       	brne	.+40     	; 0xbae <__vector_9+0x104>
 b86:	80 91 5b 01 	lds	r24, 0x015B
 b8a:	8f 5f       	subi	r24, 0xFF	; 255
 b8c:	80 93 5b 01 	sts	0x015B, r24
 b90:	80 91 5b 01 	lds	r24, 0x015B
 b94:	8d 30       	cpi	r24, 0x0D	; 13
 b96:	59 f4       	brne	.+22     	; 0xbae <__vector_9+0x104>
 b98:	81 e0       	ldi	r24, 0x01	; 1
 b9a:	80 93 5b 01 	sts	0x015B, r24
 b9e:	80 91 5c 01 	lds	r24, 0x015C
 ba2:	8f 5f       	subi	r24, 0xFF	; 255
 ba4:	80 93 5c 01 	sts	0x015C, r24
 ba8:	02 c0       	rjmp	.+4      	; 0xbae <__vector_9+0x104>
 baa:	8d e1       	ldi	r24, 0x1D	; 29
 bac:	e7 cf       	rjmp	.-50     	; 0xb7c <__vector_9+0xd2>
 bae:	ff 91       	pop	r31
 bb0:	ef 91       	pop	r30
 bb2:	bf 91       	pop	r27
 bb4:	af 91       	pop	r26
 bb6:	9f 91       	pop	r25
 bb8:	8f 91       	pop	r24
 bba:	7f 91       	pop	r23
 bbc:	6f 91       	pop	r22
 bbe:	5f 91       	pop	r21
 bc0:	3f 91       	pop	r19
 bc2:	2f 91       	pop	r18
 bc4:	0f 90       	pop	r0
 bc6:	0f be       	out	0x3f, r0	; 63
 bc8:	0f 90       	pop	r0
 bca:	1f 90       	pop	r1
 bcc:	18 95       	reti

00000bce <uart_send>:
 bce:	fc 01       	movw	r30, r24
 bd0:	03 c0       	rjmp	.+6      	; 0xbd8 <uart_send+0xa>
 bd2:	5d 9b       	sbis	0x0b, 5	; 11
 bd4:	fe cf       	rjmp	.-4      	; 0xbd2 <uart_send+0x4>
 bd6:	8c b9       	out	0x0c, r24	; 12
 bd8:	81 91       	ld	r24, Z+
 bda:	81 11       	cpse	r24, r1
 bdc:	fa cf       	rjmp	.-12     	; 0xbd2 <uart_send+0x4>
 bde:	5d 9b       	sbis	0x0b, 5	; 11
 be0:	fe cf       	rjmp	.-4      	; 0xbde <uart_send+0x10>
 be2:	8a e0       	ldi	r24, 0x0A	; 10
 be4:	8c b9       	out	0x0c, r24	; 12
 be6:	08 95       	ret

00000be8 <uart_send_char>:
 be8:	5d 9b       	sbis	0x0b, 5	; 11
 bea:	fe cf       	rjmp	.-4      	; 0xbe8 <uart_send_char>
 bec:	8c b9       	out	0x0c, r24	; 12
 bee:	08 95       	ret

00000bf0 <uart_init>:
 bf0:	8a b1       	in	r24, 0x0a	; 10
 bf2:	88 69       	ori	r24, 0x98	; 152
 bf4:	8a b9       	out	0x0a, r24	; 10
 bf6:	80 b5       	in	r24, 0x20	; 32
 bf8:	86 68       	ori	r24, 0x86	; 134
 bfa:	80 bd       	out	0x20, r24	; 32
 bfc:	10 bc       	out	0x20, r1	; 32
 bfe:	87 e2       	ldi	r24, 0x27	; 39
 c00:	89 b9       	out	0x09, r24	; 9
 c02:	10 92 64 01 	sts	0x0164, r1
 c06:	08 95       	ret

00000c08 <__vector_13>:
 c08:	1f 92       	push	r1
 c0a:	0f 92       	push	r0
 c0c:	0f b6       	in	r0, 0x3f	; 63
 c0e:	0f 92       	push	r0
 c10:	11 24       	eor	r1, r1
 c12:	2f 93       	push	r18
 c14:	3f 93       	push	r19
 c16:	4f 93       	push	r20
 c18:	5f 93       	push	r21
 c1a:	6f 93       	push	r22
 c1c:	7f 93       	push	r23
 c1e:	8f 93       	push	r24
 c20:	9f 93       	push	r25
 c22:	af 93       	push	r26
 c24:	bf 93       	push	r27
 c26:	ef 93       	push	r30
 c28:	ff 93       	push	r31
 c2a:	cf 93       	push	r28
 c2c:	df 93       	push	r29
 c2e:	cd b7       	in	r28, 0x3d	; 61
 c30:	de b7       	in	r29, 0x3e	; 62
 c32:	2a 97       	sbiw	r28, 0x0a	; 10
 c34:	de bf       	out	0x3e, r29	; 62
 c36:	cd bf       	out	0x3d, r28	; 61
 c38:	8c b1       	in	r24, 0x0c	; 12
 c3a:	8a 30       	cpi	r24, 0x0A	; 10
 c3c:	89 f0       	breq	.+34     	; 0xc60 <__vector_13+0x58>
 c3e:	e0 91 64 01 	lds	r30, 0x0164
 c42:	f0 e0       	ldi	r31, 0x00	; 0
 c44:	eb 59       	subi	r30, 0x9B	; 155
 c46:	fe 4f       	sbci	r31, 0xFE	; 254
 c48:	80 83       	st	Z, r24
 c4a:	80 91 64 01 	lds	r24, 0x0164
 c4e:	90 e0       	ldi	r25, 0x00	; 0
 c50:	01 96       	adiw	r24, 0x01	; 1
 c52:	6a e0       	ldi	r22, 0x0A	; 10
 c54:	70 e0       	ldi	r23, 0x00	; 0
 c56:	0e 94 4b 07 	call	0xe96	; 0xe96 <__divmodhi4>
 c5a:	80 93 64 01 	sts	0x0164, r24
 c5e:	c4 c0       	rjmp	.+392    	; 0xde8 <__vector_13+0x1e0>
 c60:	8c ea       	ldi	r24, 0xAC	; 172
 c62:	90 e0       	ldi	r25, 0x00	; 0
 c64:	0e 94 e7 05 	call	0xbce	; 0xbce <uart_send>
 c68:	de 01       	movw	r26, r28
 c6a:	11 96       	adiw	r26, 0x01	; 1
 c6c:	80 e0       	ldi	r24, 0x00	; 0
 c6e:	90 e0       	ldi	r25, 0x00	; 0
 c70:	fc 01       	movw	r30, r24
 c72:	eb 59       	subi	r30, 0x9B	; 155
 c74:	fe 4f       	sbci	r31, 0xFE	; 254
 c76:	20 81       	ld	r18, Z
 c78:	2d 93       	st	X+, r18
 c7a:	10 82       	st	Z, r1
 c7c:	01 96       	adiw	r24, 0x01	; 1
 c7e:	8a 30       	cpi	r24, 0x0A	; 10
 c80:	91 05       	cpc	r25, r1
 c82:	b1 f7       	brne	.-20     	; 0xc70 <__vector_13+0x68>
 c84:	66 eb       	ldi	r22, 0xB6	; 182
 c86:	70 e0       	ldi	r23, 0x00	; 0
 c88:	ce 01       	movw	r24, r28
 c8a:	01 96       	adiw	r24, 0x01	; 1
 c8c:	0e 94 5f 07 	call	0xebe	; 0xebe <strcmp>
 c90:	00 97       	sbiw	r24, 0x00	; 0
 c92:	19 f4       	brne	.+6      	; 0xc9a <__vector_13+0x92>
 c94:	80 e0       	ldi	r24, 0x00	; 0
 c96:	0e 94 9e 03 	call	0x73c	; 0x73c <mem_print_sector>
 c9a:	6d eb       	ldi	r22, 0xBD	; 189
 c9c:	70 e0       	ldi	r23, 0x00	; 0
 c9e:	ce 01       	movw	r24, r28
 ca0:	01 96       	adiw	r24, 0x01	; 1
 ca2:	0e 94 5f 07 	call	0xebe	; 0xebe <strcmp>
 ca6:	00 97       	sbiw	r24, 0x00	; 0
 ca8:	19 f4       	brne	.+6      	; 0xcb0 <__vector_13+0xa8>
 caa:	81 e0       	ldi	r24, 0x01	; 1
 cac:	0e 94 9e 03 	call	0x73c	; 0x73c <mem_print_sector>
 cb0:	64 ec       	ldi	r22, 0xC4	; 196
 cb2:	70 e0       	ldi	r23, 0x00	; 0
 cb4:	ce 01       	movw	r24, r28
 cb6:	01 96       	adiw	r24, 0x01	; 1
 cb8:	0e 94 5f 07 	call	0xebe	; 0xebe <strcmp>
 cbc:	00 97       	sbiw	r24, 0x00	; 0
 cbe:	19 f4       	brne	.+6      	; 0xcc6 <__vector_13+0xbe>
 cc0:	82 e0       	ldi	r24, 0x02	; 2
 cc2:	0e 94 9e 03 	call	0x73c	; 0x73c <mem_print_sector>
 cc6:	6b ec       	ldi	r22, 0xCB	; 203
 cc8:	70 e0       	ldi	r23, 0x00	; 0
 cca:	ce 01       	movw	r24, r28
 ccc:	01 96       	adiw	r24, 0x01	; 1
 cce:	0e 94 5f 07 	call	0xebe	; 0xebe <strcmp>
 cd2:	00 97       	sbiw	r24, 0x00	; 0
 cd4:	19 f4       	brne	.+6      	; 0xcdc <__vector_13+0xd4>
 cd6:	83 e0       	ldi	r24, 0x03	; 3
 cd8:	0e 94 9e 03 	call	0x73c	; 0x73c <mem_print_sector>
 cdc:	62 ed       	ldi	r22, 0xD2	; 210
 cde:	70 e0       	ldi	r23, 0x00	; 0
 ce0:	ce 01       	movw	r24, r28
 ce2:	01 96       	adiw	r24, 0x01	; 1
 ce4:	0e 94 5f 07 	call	0xebe	; 0xebe <strcmp>
 ce8:	00 97       	sbiw	r24, 0x00	; 0
 cea:	19 f4       	brne	.+6      	; 0xcf2 <__vector_13+0xea>
 cec:	84 e0       	ldi	r24, 0x04	; 4
 cee:	0e 94 9e 03 	call	0x73c	; 0x73c <mem_print_sector>
 cf2:	69 ed       	ldi	r22, 0xD9	; 217
 cf4:	70 e0       	ldi	r23, 0x00	; 0
 cf6:	ce 01       	movw	r24, r28
 cf8:	01 96       	adiw	r24, 0x01	; 1
 cfa:	0e 94 5f 07 	call	0xebe	; 0xebe <strcmp>
 cfe:	00 97       	sbiw	r24, 0x00	; 0
 d00:	19 f4       	brne	.+6      	; 0xd08 <__vector_13+0x100>
 d02:	85 e0       	ldi	r24, 0x05	; 5
 d04:	0e 94 9e 03 	call	0x73c	; 0x73c <mem_print_sector>
 d08:	60 ee       	ldi	r22, 0xE0	; 224
 d0a:	70 e0       	ldi	r23, 0x00	; 0
 d0c:	ce 01       	movw	r24, r28
 d0e:	01 96       	adiw	r24, 0x01	; 1
 d10:	0e 94 5f 07 	call	0xebe	; 0xebe <strcmp>
 d14:	00 97       	sbiw	r24, 0x00	; 0
 d16:	19 f4       	brne	.+6      	; 0xd1e <__vector_13+0x116>
 d18:	86 e0       	ldi	r24, 0x06	; 6
 d1a:	0e 94 9e 03 	call	0x73c	; 0x73c <mem_print_sector>
 d1e:	67 ee       	ldi	r22, 0xE7	; 231
 d20:	70 e0       	ldi	r23, 0x00	; 0
 d22:	ce 01       	movw	r24, r28
 d24:	01 96       	adiw	r24, 0x01	; 1
 d26:	0e 94 5f 07 	call	0xebe	; 0xebe <strcmp>
 d2a:	00 97       	sbiw	r24, 0x00	; 0
 d2c:	19 f4       	brne	.+6      	; 0xd34 <__vector_13+0x12c>
 d2e:	87 e0       	ldi	r24, 0x07	; 7
 d30:	0e 94 9e 03 	call	0x73c	; 0x73c <mem_print_sector>
 d34:	6e ee       	ldi	r22, 0xEE	; 238
 d36:	70 e0       	ldi	r23, 0x00	; 0
 d38:	ce 01       	movw	r24, r28
 d3a:	01 96       	adiw	r24, 0x01	; 1
 d3c:	0e 94 5f 07 	call	0xebe	; 0xebe <strcmp>
 d40:	00 97       	sbiw	r24, 0x00	; 0
 d42:	19 f4       	brne	.+6      	; 0xd4a <__vector_13+0x142>
 d44:	80 e0       	ldi	r24, 0x00	; 0
 d46:	0e 94 01 03 	call	0x602	; 0x602 <mem_sector_erase>
 d4a:	65 ef       	ldi	r22, 0xF5	; 245
 d4c:	70 e0       	ldi	r23, 0x00	; 0
 d4e:	ce 01       	movw	r24, r28
 d50:	01 96       	adiw	r24, 0x01	; 1
 d52:	0e 94 5f 07 	call	0xebe	; 0xebe <strcmp>
 d56:	00 97       	sbiw	r24, 0x00	; 0
 d58:	19 f4       	brne	.+6      	; 0xd60 <__vector_13+0x158>
 d5a:	81 e0       	ldi	r24, 0x01	; 1
 d5c:	0e 94 01 03 	call	0x602	; 0x602 <mem_sector_erase>
 d60:	6c ef       	ldi	r22, 0xFC	; 252
 d62:	70 e0       	ldi	r23, 0x00	; 0
 d64:	ce 01       	movw	r24, r28
 d66:	01 96       	adiw	r24, 0x01	; 1
 d68:	0e 94 5f 07 	call	0xebe	; 0xebe <strcmp>
 d6c:	00 97       	sbiw	r24, 0x00	; 0
 d6e:	19 f4       	brne	.+6      	; 0xd76 <__vector_13+0x16e>
 d70:	82 e0       	ldi	r24, 0x02	; 2
 d72:	0e 94 01 03 	call	0x602	; 0x602 <mem_sector_erase>
 d76:	63 e0       	ldi	r22, 0x03	; 3
 d78:	71 e0       	ldi	r23, 0x01	; 1
 d7a:	ce 01       	movw	r24, r28
 d7c:	01 96       	adiw	r24, 0x01	; 1
 d7e:	0e 94 5f 07 	call	0xebe	; 0xebe <strcmp>
 d82:	00 97       	sbiw	r24, 0x00	; 0
 d84:	19 f4       	brne	.+6      	; 0xd8c <__vector_13+0x184>
 d86:	83 e0       	ldi	r24, 0x03	; 3
 d88:	0e 94 01 03 	call	0x602	; 0x602 <mem_sector_erase>
 d8c:	6a e0       	ldi	r22, 0x0A	; 10
 d8e:	71 e0       	ldi	r23, 0x01	; 1
 d90:	ce 01       	movw	r24, r28
 d92:	01 96       	adiw	r24, 0x01	; 1
 d94:	0e 94 5f 07 	call	0xebe	; 0xebe <strcmp>
 d98:	00 97       	sbiw	r24, 0x00	; 0
 d9a:	19 f4       	brne	.+6      	; 0xda2 <__vector_13+0x19a>
 d9c:	84 e0       	ldi	r24, 0x04	; 4
 d9e:	0e 94 01 03 	call	0x602	; 0x602 <mem_sector_erase>
 da2:	61 e1       	ldi	r22, 0x11	; 17
 da4:	71 e0       	ldi	r23, 0x01	; 1
 da6:	ce 01       	movw	r24, r28
 da8:	01 96       	adiw	r24, 0x01	; 1
 daa:	0e 94 5f 07 	call	0xebe	; 0xebe <strcmp>
 dae:	00 97       	sbiw	r24, 0x00	; 0
 db0:	19 f4       	brne	.+6      	; 0xdb8 <__vector_13+0x1b0>
 db2:	85 e0       	ldi	r24, 0x05	; 5
 db4:	0e 94 01 03 	call	0x602	; 0x602 <mem_sector_erase>
 db8:	68 e1       	ldi	r22, 0x18	; 24
 dba:	71 e0       	ldi	r23, 0x01	; 1
 dbc:	ce 01       	movw	r24, r28
 dbe:	01 96       	adiw	r24, 0x01	; 1
 dc0:	0e 94 5f 07 	call	0xebe	; 0xebe <strcmp>
 dc4:	00 97       	sbiw	r24, 0x00	; 0
 dc6:	19 f4       	brne	.+6      	; 0xdce <__vector_13+0x1c6>
 dc8:	86 e0       	ldi	r24, 0x06	; 6
 dca:	0e 94 01 03 	call	0x602	; 0x602 <mem_sector_erase>
 dce:	6f e1       	ldi	r22, 0x1F	; 31
 dd0:	71 e0       	ldi	r23, 0x01	; 1
 dd2:	ce 01       	movw	r24, r28
 dd4:	01 96       	adiw	r24, 0x01	; 1
 dd6:	0e 94 5f 07 	call	0xebe	; 0xebe <strcmp>
 dda:	00 97       	sbiw	r24, 0x00	; 0
 ddc:	19 f4       	brne	.+6      	; 0xde4 <__vector_13+0x1dc>
 dde:	87 e0       	ldi	r24, 0x07	; 7
 de0:	0e 94 01 03 	call	0x602	; 0x602 <mem_sector_erase>
 de4:	10 92 64 01 	sts	0x0164, r1
 de8:	2a 96       	adiw	r28, 0x0a	; 10
 dea:	0f b6       	in	r0, 0x3f	; 63
 dec:	f8 94       	cli
 dee:	de bf       	out	0x3e, r29	; 62
 df0:	0f be       	out	0x3f, r0	; 63
 df2:	cd bf       	out	0x3d, r28	; 61
 df4:	df 91       	pop	r29
 df6:	cf 91       	pop	r28
 df8:	ff 91       	pop	r31
 dfa:	ef 91       	pop	r30
 dfc:	bf 91       	pop	r27
 dfe:	af 91       	pop	r26
 e00:	9f 91       	pop	r25
 e02:	8f 91       	pop	r24
 e04:	7f 91       	pop	r23
 e06:	6f 91       	pop	r22
 e08:	5f 91       	pop	r21
 e0a:	4f 91       	pop	r20
 e0c:	3f 91       	pop	r19
 e0e:	2f 91       	pop	r18
 e10:	0f 90       	pop	r0
 e12:	0f be       	out	0x3f, r0	; 63
 e14:	0f 90       	pop	r0
 e16:	1f 90       	pop	r1
 e18:	18 95       	reti

00000e1a <BCD_to_Bin>:
 e1a:	28 2f       	mov	r18, r24
 e1c:	22 95       	swap	r18
 e1e:	2f 70       	andi	r18, 0x0F	; 15
 e20:	92 2f       	mov	r25, r18
 e22:	99 0f       	add	r25, r25
 e24:	99 0f       	add	r25, r25
 e26:	92 0f       	add	r25, r18
 e28:	99 0f       	add	r25, r25
 e2a:	8f 70       	andi	r24, 0x0F	; 15
 e2c:	89 0f       	add	r24, r25
 e2e:	08 95       	ret

00000e30 <main>:
 e30:	0e 94 be 02 	call	0x57c	; 0x57c <adr_init>
 e34:	0e 94 84 01 	call	0x308	; 0x308 <adc_init>
 e38:	0e 94 f8 05 	call	0xbf0	; 0xbf0 <uart_init>
 e3c:	0e 94 9a 00 	call	0x134	; 0x134 <com_init>
 e40:	81 e0       	ldi	r24, 0x01	; 1
 e42:	0e 94 b7 01 	call	0x36e	; 0x36e <tmp_init>
 e46:	82 e0       	ldi	r24, 0x02	; 2
 e48:	0e 94 b7 01 	call	0x36e	; 0x36e <tmp_init>
 e4c:	78 94       	sei
 e4e:	89 e6       	ldi	r24, 0x69	; 105
 e50:	90 e0       	ldi	r25, 0x00	; 0
 e52:	0e 94 e7 05 	call	0xbce	; 0xbce <uart_send>
 e56:	2f ef       	ldi	r18, 0xFF	; 255
 e58:	8f e7       	ldi	r24, 0x7F	; 127
 e5a:	95 e2       	ldi	r25, 0x25	; 37
 e5c:	21 50       	subi	r18, 0x01	; 1
 e5e:	80 40       	sbci	r24, 0x00	; 0
 e60:	90 40       	sbci	r25, 0x00	; 0
 e62:	e1 f7       	brne	.-8      	; 0xe5c <main+0x2c>
 e64:	00 c0       	rjmp	.+0      	; 0xe66 <main+0x36>
 e66:	00 00       	nop
 e68:	0e 94 4a 01 	call	0x294	; 0x294 <net_receive>
 e6c:	fd cf       	rjmp	.-6      	; 0xe68 <main+0x38>

00000e6e <__udivmodhi4>:
 e6e:	aa 1b       	sub	r26, r26
 e70:	bb 1b       	sub	r27, r27
 e72:	51 e1       	ldi	r21, 0x11	; 17
 e74:	07 c0       	rjmp	.+14     	; 0xe84 <__udivmodhi4_ep>

00000e76 <__udivmodhi4_loop>:
 e76:	aa 1f       	adc	r26, r26
 e78:	bb 1f       	adc	r27, r27
 e7a:	a6 17       	cp	r26, r22
 e7c:	b7 07       	cpc	r27, r23
 e7e:	10 f0       	brcs	.+4      	; 0xe84 <__udivmodhi4_ep>
 e80:	a6 1b       	sub	r26, r22
 e82:	b7 0b       	sbc	r27, r23

00000e84 <__udivmodhi4_ep>:
 e84:	88 1f       	adc	r24, r24
 e86:	99 1f       	adc	r25, r25
 e88:	5a 95       	dec	r21
 e8a:	a9 f7       	brne	.-22     	; 0xe76 <__udivmodhi4_loop>
 e8c:	80 95       	com	r24
 e8e:	90 95       	com	r25
 e90:	bc 01       	movw	r22, r24
 e92:	cd 01       	movw	r24, r26
 e94:	08 95       	ret

00000e96 <__divmodhi4>:
 e96:	97 fb       	bst	r25, 7
 e98:	07 2e       	mov	r0, r23
 e9a:	16 f4       	brtc	.+4      	; 0xea0 <__divmodhi4+0xa>
 e9c:	00 94       	com	r0
 e9e:	07 d0       	rcall	.+14     	; 0xeae <__divmodhi4_neg1>
 ea0:	77 fd       	sbrc	r23, 7
 ea2:	09 d0       	rcall	.+18     	; 0xeb6 <__divmodhi4_neg2>
 ea4:	0e 94 37 07 	call	0xe6e	; 0xe6e <__udivmodhi4>
 ea8:	07 fc       	sbrc	r0, 7
 eaa:	05 d0       	rcall	.+10     	; 0xeb6 <__divmodhi4_neg2>
 eac:	3e f4       	brtc	.+14     	; 0xebc <__divmodhi4_exit>

00000eae <__divmodhi4_neg1>:
 eae:	90 95       	com	r25
 eb0:	81 95       	neg	r24
 eb2:	9f 4f       	sbci	r25, 0xFF	; 255
 eb4:	08 95       	ret

00000eb6 <__divmodhi4_neg2>:
 eb6:	70 95       	com	r23
 eb8:	61 95       	neg	r22
 eba:	7f 4f       	sbci	r23, 0xFF	; 255

00000ebc <__divmodhi4_exit>:
 ebc:	08 95       	ret

00000ebe <strcmp>:
 ebe:	fb 01       	movw	r30, r22
 ec0:	dc 01       	movw	r26, r24
 ec2:	8d 91       	ld	r24, X+
 ec4:	01 90       	ld	r0, Z+
 ec6:	80 19       	sub	r24, r0
 ec8:	01 10       	cpse	r0, r1
 eca:	d9 f3       	breq	.-10     	; 0xec2 <strcmp+0x4>
 ecc:	99 0b       	sbc	r25, r25
 ece:	08 95       	ret

00000ed0 <_exit>:
 ed0:	f8 94       	cli

00000ed2 <__stop_program>:
 ed2:	ff cf       	rjmp	.-2      	; 0xed2 <__stop_program>
